
Discarded input sections

 .gomi          0x0000000000000000       0x14 output.o

Memory Configuration

Name             Origin             Length             Attributes
*default*        0x0000000000000000 0xffffffffffffffff

Linker script and memory map

                0x0000000040100000                virt = 0x40100000
                0x0000000000100000                phys = 0x100000
                0x0000000040100000                . = virt
                0x0000000040100000                head = .
                0x0000000040100078                . = (virt + SIZEOF_HEADERS)

.entry          0x0000000040101000     0x6a30 load address 0x0000000000101000
                0x0000000040101000                code = .
 *(.entry)
 .entry         0x0000000040101000     0x6000 output.o
                0x000000004010100c                entry
                0x000000004010131e                uefi_entry_save_regs
                0x000000004010136c                uefi_entry_restore_regs
                0x00000000401013e3                uefi_entry_virttophys
                0x00000000401013ee                uefi_entry_call
                0x000000004010142e                uefi_entry_pcpy
                0x000000004010146d                uefi_entry_start
                0x000000004010152b                uefi_entry_cr3
                0x0000000040101533                uefi_entry_rsp
                0x000000004010153b                uefi_entry_ret_addr
                0x0000000040101543                uefi_entry_gdtr
                0x00000000401015f0                cpuinit_start
                0x0000000040101820                vmm_base_cr3
                0x0000000040101838                apinit_procs
                0x0000000040101840                apinit_lock
                0x0000000040101848                cpuinit_end
                0x0000000040103000                entry_pdp
                0x0000000040104000                entry_pd0
                0x0000000040105000                entry_pd
 *(.entry.text)
 .entry.text    0x0000000040107000      0x842 output.o
                0x0000000040107000                uefi_init_get_vmmsize
                0x0000000040107158                uefi_init
 *(.entry.data)
 *fill*         0x0000000040107842       0x1e 
 .entry.data    0x0000000040107860      0x1d0 output.o
                0x0000000040107928                uefi_boot_acpi_table_mod
                0x0000000040107930                uefi_create_event
                0x0000000040107938                uefi_uninstall_protocol_interface
                0x0000000040107940                uefi_protocols_per_handle
                0x0000000040107948                uefi_boot_param_ext_addr
                0x0000000040107950                uefi_disconnect_controller
                0x0000000040107958                uefi_image_handle
                0x0000000040107960                uefi_close_protocol
                0x0000000040107968                uefi_open_protocol
                0x0000000040107970                uefi_locate_device_path
                0x0000000040107978                uefi_free_pool
                0x0000000040107980                uefi_locate_handle_buffer
                0x0000000040107988                uefi_acpi_table
                0x0000000040107990                uefi_acpi_20_table
                0x0000000040107998                uefi_wait_for_event
                0x00000000401079a0                uefi_free_pages
                0x00000000401079a8                uefi_get_memory_map
                0x00000000401079b0                uefi_allocate_pages
                0x00000000401079b8                uefi_conout_output_string
                0x00000000401079c0                uefi_conin_read_key_stroke
                0x00000000401079c8                uefi_conout
                0x00000000401079d0                uefi_conin

.text           0x0000000040108000    0xe0189 load address 0x0000000000108000
                0x0000000040108000                text = .
 *(.text)
 .text          0x0000000040108000    0xe0189 output.o
                0x000000004010920c                acpi_smi_hook
                0x000000004010925b                acpi_iohook
                0x00000000401092b5                acpi_reset
                0x000000004010941b                acpi_poweroff
                0x0000000040109452                get_acpi_time_raw
                0x0000000040109472                acpi_read_mcfg
                0x00000000401094d7                acpi_dmar_translate
                0x000000004010969d                acpi_dmar_msi_to_icr
                0x0000000040109819                acpi_dmar_add_pci_device
                0x0000000040109b3d                acpi_dmar_done_pci_device
                0x0000000040109c1a                modify_acpi_table
                0x000000004010f806                acpi_dsdt_parse
                0x000000004010f8e1                acpi_ssdt_parse
                0x000000004010fac1                apinitproc0
                0x000000004010faf8                apic_available
                0x000000004010fb29                ap_start_addr
                0x000000004010fe96                panic_wakeup_all
                0x000000004010ff1b                disable_apic
                0x000000004010ffc6                sync_all_processors
                0x000000004011005d                start_all_processors
                0x00000000401100c7                self_ipi
                0x0000000040110126                send_ipi
                0x00000000401101a8                eoi
                0x00000000401101e7                msi_to_icr
                0x0000000040110292                is_icr_destination_me
                0x000000004011036f                dmar_irte_to_icr
                0x00000000401103ff                ap_change_base_msr
                0x0000000040110416                assertion_failed
                0x0000000040110452                beep_set_freq
                0x0000000040110482                beep_on
                0x0000000040110491                beep_off
                0x0000000040110b52                update_mtrr_and_pat
                0x0000000040110f5d                cache_get_gpat
                0x0000000040110fb2                cache_set_gpat
                0x0000000040111000                cache_get_attr
                0x000000004011109d                cache_get_gmtrr_type
                0x00000000401110c0                cache_gmtrr_type_equal
                0x00000000401111f0                cache_get_gmtrr_attr
                0x000000004011121c                cache_get_gmtrrcap
                0x0000000040111249                cache_get_gmtrr
                0x0000000040111363                cache_set_gmtrr
                0x00000000401113c4                cache_get_gmsr_amd
                0x0000000040111458                cache_set_gmsr_amd
                0x000000004011190a                callrealmode_endofcodeaddr
                0x000000004011191a                callrealmode_usevcpu
                0x0000000040111926                callrealmode_printmsg
                0x0000000040111947                callrealmode_getsysmemmap
                0x000000004011199a                callrealmode_getshiftflags
                0x00000000401119bc                callrealmode_setvideomode
                0x00000000401119de                callrealmode_reboot
                0x00000000401119fc                callrealmode_tcgbios
                0x0000000040111a93                callrealmode_disk_readmbr
                0x0000000040111ad7                callrealmode_disk_readlba
                0x0000000040111b23                callrealmode_bootcd_getstatus
                0x0000000040111b7b                callrealmode_setcursorpos
                0x0000000040111ba4                callrealmode_startkernel32
                0x0000000040111bc8                callrealmode_getfontinfo
                0x0000000040111c3c                call_uefi_get_memory_map
                0x0000000040111cc2                call_uefi_allocate_pages
                0x0000000040111d26                call_uefi_free_pages
                0x0000000040111d4c                call_uefi_create_event_exit_boot_services
                0x0000000040111db0                call_uefi_boot_acpi_table_mod
                0x0000000040111dff                call_uefi_getkey
                0x0000000040111e77                call_uefi_putchar
                0x0000000040111ec3                call_uefi_disconnect_pcidev_driver
                0x0000000040112462                call_uefi_netdev_get_mac_addr
                0x000000004011285e                fill_pagetable
                0x0000000040112975                call_uefi_get_graphics_info
                0x0000000040112c7f                copy_uefi_bootcode
                0x0000000040112dd3                get_cpu_id
                0x0000000040112de6                cpu_emul_cpuid
                0x0000000040112e9e                cpu_emul_rdmsr
                0x0000000040112f1b                cpu_emul_wrmsr
                0x0000000040112f8d                cpu_emul_hlt
                0x0000000040112fa4                cpu_emul_cli
                0x0000000040112fe1                cpu_emul_sti
                0x000000004011301e                cpu_emul_realmode_int
                0x000000004011318b                cpu_emul_xsetbv
                0x0000000040115697                cpu_interpreter
                0x0000000040117a21                cpu_mmu_get_pte
                0x0000000040118215                write_linearaddr_ok_b
                0x000000004011823b                write_linearaddr_ok_w
                0x000000004011824a                write_linearaddr_ok_l
                0x0000000040118259                write_linearaddr_b
                0x00000000401182cc                guestvirt_to_guestphys
                0x000000004011831e                write_linearaddr_w
                0x00000000401183c3                write_linearaddr_l
                0x0000000040118466                write_linearaddr_q
                0x0000000040118507                read_linearaddr_b
                0x0000000040118579                read_linearaddr_w
                0x0000000040118617                read_linearaddr_l
                0x00000000401186b5                read_linearaddr_q
                0x0000000040118753                read_linearaddr_tss
                0x00000000401187f9                write_linearaddr_tss
                0x000000004011ca70                cpu_mmu_spt_tlbflush
                0x000000004011caaf                cpu_mmu_spt_updatecr3
                0x000000004011ccc1                cpu_mmu_spt_invalidate
                0x000000004011cd4c                cpu_mmu_spt_pagefault
                0x000000004011cf39                cpu_mmu_spt_map_1mb
                0x000000004011d0ed                cpu_mmu_spt_clear_all
                0x000000004011d23b                cpu_mmu_spt_init
                0x000000004011d7ed                cpu_seg_read_b
                0x000000004011d861                cpu_seg_read_w
                0x000000004011d8d5                cpu_seg_read_l
                0x000000004011d949                cpu_seg_read_q
                0x000000004011d9bd                cpu_seg_write_b
                0x000000004011da32                cpu_seg_write_w
                0x000000004011daa7                cpu_seg_write_l
                0x000000004011db1b                cpu_seg_write_q
                0x000000004011db8f                cpu_stack_get
                0x000000004011dbff                cpu_stack_set
                0x000000004011dc92                cpu_stack_push
                0x000000004011dd3b                cpu_stack_pop
                0x000000004011de1a                call_cpuid
                0x000000004011e36f                debug_gdb
                0x000000004011e374                debug_iohook
                0x000000004011e379                debug_msgregister
                0x000000004011e3e7                debug_msgunregister
                0x000000004011e440                debug_shell
                0x000000004011e4db                exint_pass_intr_call
                0x000000004011e55a                exint_pass_intr_alloc
                0x000000004011e5a6                exint_pass_intr_free
                0x000000004011e5c8                exint_pass_intr_register_callback
                0x000000004011e621                read_gphys_b
                0x000000004011e697                write_gphys_b
                0x000000004011e71e                read_gphys_w
                0x000000004011e7bf                write_gphys_w
                0x000000004011e874                read_gphys_l
                0x000000004011e915                write_gphys_l
                0x000000004011e9cf                read_gphys_q
                0x000000004011ea70                write_gphys_q
                0x000000004011eb25                cmpxchg_gphys_l
                0x000000004011ebe7                cmpxchg_gphys_q
                0x000000004011eca9                gmm_pass_getforcemap
                0x000000004011ecc1                gmm_pass_gp2hp
                0x000000004011ed42                gmm_pass_gp2hp_2m
                0x000000004011f131                call_initfunc
                0x000000004011f190                initfunc_init
                0x0000000040120d0e                int_fatal
                0x0000000040120fc9                callfunc_and_getint
                0x0000000040120fe1                do_externalint_enable
                0x0000000040120ffa                set_int_handler
                0x000000004012101d                int_exceptionHandler
                0x000000004012102c                int_init_ap
                0x000000004012105a                do_io_nothing
                0x000000004012109e                set_iofunc
                0x000000004012112f                call_io
                0x0000000040121159                do_iopass_default
                0x00000000401213ee                keyboard_reset
                0x0000000040121449                setkbdled
                0x00000000401214aa                keyboard_flush
                0x00000000401214cc                load_bootsector
                0x0000000040121862                copy_bootsector
                0x0000000040121c72                localapic_wait_for_sipi
                0x0000000040121d5f                localapic_change_base_msr
                0x0000000040121de9                localapic_mmio_register
                0x0000000040121e55                localapic_delayed_ap_start
                0x0000000040121e61                localapic_x2apic_icr
                0x0000000040122a0a                resume_vm
                0x0000000040122ad1                vmm_main
                0x000000004012377b                getsysmemmap
                0x00000000401237f7                getfakesysmemmap
                0x000000004012387b                alloc_uppermem
                0x00000000401238ba                phys_to_virt
                0x00000000401238cf                virt_to_phys
                0x00000000401238e2                vmm_start_inf
                0x00000000401238ed                vmm_term_inf
                0x00000000401238fd                num_of_available_pages
                0x0000000040123996                mm_get_panicmem
                0x00000000401239d1                mm_free_panicmem
                0x0000000040123a1b                alloc_pages
                0x0000000040123c8a                alloc_page
                0x0000000040123c9e                alloc
                0x0000000040123eef                alloc2
                0x0000000040123f2d                free
                0x00000000401241a3                realloc
                0x0000000040124445                free_page
                0x000000004012445c                free_page_phys
                0x0000000040124483                free_pages_range
                0x0000000040124516                mempool_new
                0x0000000040124585                mempool_free
                0x0000000040124659                mempool_allocmem
                0x0000000040124841                mempool_freemem
                0x0000000040124ac8                sym_to_phys
                0x0000000040124adb                phys_in_vmm
                0x0000000040124b01                mm_force_unlock
                0x0000000040124b31                mm_process_alloc
                0x0000000040124b7a                mm_process_free
                0x0000000040124b89                pmap_open_vmm
                0x0000000040124bb3                pmap_open_guest
                0x0000000040124bfb                pmap_close
                0x0000000040124c00                pmap_getreadlevel
                0x0000000040124c0b                pmap_setlevel
                0x0000000040124c16                pmap_seek
                0x0000000040124c60                pmap_read
                0x0000000040124f04                pmap_write
                0x00000000401250e1                mm_process_unmap
                0x00000000401251c1                mm_process_unmap_stack
                0x0000000040125386                mm_process_unmapall
                0x0000000040125436                mm_process_switch
                0x00000000401255fd                pmap_pointer
                0x000000004012566e                pmap_clear
                0x00000000401257b8                pmap_autoalloc
                0x000000004012593f                mm_process_map_alloc
                0x0000000040125a2e                mm_process_map_shared_physpage
                0x0000000040125a9c                mm_process_map_shared
                0x0000000040125d4a                mm_process_map_stack
                0x0000000040126900                pmap_dump
                0x0000000040126a1b                mm_as_translate
                0x0000000040126aae                mm_as_msi_to_icr
                0x0000000040126add                unmapmem
                0x00000000401271cc                mapmem_hphys
                0x00000000401271e7                alloc_realmodemem
                0x0000000040127448                read_hphys_b
                0x00000000401274a3                write_hphys_b
                0x00000000401274d8                read_hphys_w
                0x0000000040127512                write_hphys_w
                0x0000000040127548                read_hphys_l
                0x0000000040127580                write_hphys_l
                0x00000000401275b5                read_hphys_q
                0x00000000401275ef                write_hphys_q
                0x0000000040127626                cmpxchg_hphys_l
                0x000000004012766b                cmpxchg_hphys_q
                0x00000000401276b2                mapmem_as
                0x00000000401276cb                mm_flush_wb_cache
                0x0000000040127c38                mmio_access_memory
                0x0000000040127f11                mmio_access_page
                0x0000000040127fde                mmio_register
                0x0000000040127ff3                mmio_register_unlocked
                0x0000000040128008                mmio_unregister
                0x00000000401280c8                mmio_lock
                0x0000000040128104                mmio_unlock
                0x0000000040128214                mmio_range
                0x0000000040128394                msg_findname
                0x000000004012840a                msg_register
                0x00000000401284ff                msg_unregister
                0x0000000040128580                msg_unregisterall
                0x0000000040128600                msg_unregister2
                0x00000000401286ca                call_read_msr
                0x00000000401286e2                call_write_msr
                0x0000000040129398                msr_pass_hook_x2apic_icr
                0x000000004012947e                load_minios
                0x000000004012976d                backtrace
                0x000000004012a526                panic
                0x000000004012a5c8                auto_reboot
                0x000000004012a5e9                panic_test
                0x000000004012a62b                pcpu_list_foreach
                0x000000004012a66e                pcpu_list_add
                0x000000004012a6c1                pcpu_init
                0x000000004012b252                vprintf
                0x000000004012b291                printf
                0x000000004012b2d3                vsnprintf
                0x000000004012b31a                snprintf
                0x000000004012b3cf                sys_msgret
                0x000000004012b3e8                sys_msgunregister
                0x000000004012b548                sys_msgclose
                0x000000004012b76c                sys_msgsetfunc
                0x000000004012b9eb                sys_msgregister
                0x000000004012c27c                sys_msgsendint
                0x000000004012c57d                sys_msgsenddesc
                0x000000004012c5bc                sys_exitprocess
                0x000000004012c974                sys_newprocess
                0x000000004012c9de                sys_msgsendbuf
                0x000000004012cb1a                sys_msgopen
                0x000000004012cb94                processbin_add
                0x000000004012d1d8                process_kill
                0x000000004012d23d                own_process64_msrs
                0x000000004012d2a9                msgsetfunc
                0x000000004012d2c2                msgregister
                0x000000004012d2dc                msgopen
                0x000000004012d2f3                msgclose
                0x000000004012d309                msgsendint
                0x000000004012d321                msgsenddesc
                0x000000004012d339                newprocess
                0x000000004012d350                msgsendbuf
                0x000000004012d36e                msgunregister
                0x000000004012d3a2                exitprocess
                0x000000004012d3b9                msgpremapbuf
                0x000000004012d536                process_syscall
                0x000000004012d5e2                putchar
                0x000000004012d624                putchar_set_func
                0x000000004012d96b                do_panic_reboot
                0x000000004012d9f8                handle_init_to_bsp
                0x000000004012da72                reboot_test
                0x000000004012daa3                savemsr_save
                0x000000004012db1a                savemsr_load
                0x000000004012df45                get_seg_base
                0x000000004012dff7                get_seg_access_rights
                0x000000004012e016                segment_wakeup
                0x000000004012e063                make_segment_gs_accessible
                0x000000004012e0c3                segment_init_ap
                0x000000004012e2fc                serial_putDebugChar
                0x000000004012e312                serial_getDebugChar
                0x000000004012e32b                serial_putchar
                0x000000004012e399                serial_init_iohook
                0x000000004012e3e1                waitcycles
                0x000000004012e3fa                usleep
                0x000000004012e50c                sleep_set_timer_counter
                0x000000004012e541                strtol
                0x000000004012e6d4                svm_exint_assert
                0x000000004012e77c                svm_exint_pass
                0x000000004012e7ac                svm_generate_external_int
                0x000000004012e7d2                vmctl_svm_init
                0x000000004012e826                message_exitcode
                0x000000004012eba3                printexitcode
                0x000000004012ebd3                svm_available
                0x000000004012ec84                svm_reset
                0x000000004012ef8a                svm_vminit
                0x000000004012f27b                svm_vmexit
                0x000000004012f280                svm_init
                0x000000004012f38d                svm_enable_resume
                0x000000004012f441                svm_resume
                0x000000004012f552                svm_ioio
                0x000000004012f64b                svm_iopass
                0x000000004012f92f                svm_init_signal
                0x000000004012f95c                svm_start_vm
                0x0000000040130ac5                svm_msr_update_lma
                0x0000000040130b38                svm_read_msr
                0x0000000040130dbc                svm_write_msr
                0x0000000040131036                svm_msrpass
                0x00000000401317f5                svm_np_init
                0x00000000401318e9                svm_np_pagefault
                0x0000000040131985                svm_np_tlbflush
                0x000000004013198a                svm_np_updatecr3
                0x0000000040131999                svm_np_clear_all
                0x0000000040131a02                svm_np_map_1mb
                0x0000000040131a6a                svm_paging_map_1mb
                0x0000000040131a92                svm_paging_flush_guest_tlb
                0x0000000040131acf                svm_paging_init
                0x0000000040131bfb                svm_paging_pagefault
                0x0000000040131c2b                svm_paging_tlbflush
                0x0000000040131c53                svm_paging_invalidate
                0x0000000040131c83                svm_paging_npf
                0x0000000040131cb3                svm_paging_updatecr3
                0x0000000040131cdb                svm_paging_spt_setcr3
                0x0000000040131d13                svm_paging_clear_all
                0x0000000040131d3b                svm_paging_get_gpat
                0x0000000040131d4a                svm_paging_set_gpat
                0x0000000040131d8f                svm_paging_apply_fixed_cr0
                0x0000000040131db3                svm_paging_apply_fixed_cr4
                0x0000000040131dd3                svm_paging_pg_change
                0x0000000040131dd8                svm_paging_start
                0x0000000040131de7                svm_panic_dump
                0x0000000040131eb3                svm_read_general_reg
                0x0000000040131feb                svm_write_general_reg
                0x00000000401320fc                svm_read_control_reg
                0x000000004013217e                svm_write_control_reg
                0x0000000040132250                svm_read_sreg_sel
                0x000000004013230c                svm_read_sreg_acr
                0x0000000040132450                svm_read_sreg_base
                0x0000000040132558                svm_read_sreg_limit
                0x000000004013262e                svm_read_ip
                0x000000004013264c                svm_write_ip
                0x0000000040132671                svm_read_flags
                0x000000004013268f                svm_write_flags
                0x00000000401326aa                svm_read_gdtr
                0x00000000401326e0                svm_write_gdtr
                0x0000000040132708                svm_read_idtr
                0x000000004013273e                svm_write_idtr
                0x0000000040132766                svm_write_realmode_seg
                0x00000000401328a6                svm_writing_sreg
                0x000000004013298e                int1a_TCG_StatusCheck
                0x0000000040132a5b                int1a_TCG_HashLogExtendEvent
                0x0000000040132aea                int1a_TCG_PassThroughToTPM
                0x0000000040132b79                int1a_TCG_HashLogEvent
                0x0000000040132c02                int1a_TCG_HashAll
                0x0000000040132cc6                int1a_TCG_TSS
                0x0000000040132d55                int1a_TCG_CompactHashLogExtendEvent
                0x0000000040132dba                tcg_measure
                0x00000000401330e8                thread_gettid
                0x00000000401330fc                schedule
                0x00000000401333cb                thread_new
                0x000000004013352b                thread_wakeup
                0x0000000040133614                thread_will_stop
                0x000000004013368a                thread_exit
                0x0000000040133729                thread_start1
                0x000000004013398c                get_cpu_time
                0x0000000040133ab5                get_acpi_time
                0x0000000040133b55                get_time
                0x0000000040133d38                timer_new
                0x0000000040133db7                timer_set
                0x0000000040133ed6                timer_free
                0x00000000401343a5                tty_putchar
                0x00000000401345f4                ttylog_stop
                0x0000000040134603                tty_udp_register
                0x000000004013464b                tty_get_logbuf_info
                0x000000004013468b                ttylog_copy_to_panicmem
                0x000000004013469f                ttylog_copy_from_panicmem
                0x00000000401346b3                tty_init_iohook
                0x00000000401346dd                vcpu_list_foreach
                0x0000000040134720                load_new_vcpu
                0x00000000401347dc                vga_register
                0x0000000040134854                vga_is_ready
                0x00000000401348b7                vga_transfer_image
                0x0000000040134905                vga_fill_rect
                0x000000004013494c                vga_get_screen_size
                0x0000000040134a75                vmmcall
                0x0000000040134ad0                vmmcall_register
                0x0000000040134b11                vmmcall_init
                0x0000000040134fe3                vmmcall_boot_continue
                0x0000000040135034                vmmcall_boot_enable
                0x0000000040135503                register_status_callback
                0x0000000040135610                vramwrite_clearscreen
                0x000000004013567e                vramwrite_putchar
                0x000000004013586a                vramwrite_mark1
                0x00000000401358b4                vramwrite_mark2
                0x00000000401358fd                vramwrite_mark3
                0x0000000040135946                vramwrite_save_and_move_cursor
                0x000000004013597f                vramwrite_restore_cursor
                0x0000000040135995                vramwrite_get_cursor_pos
                0x00000000401359f1                vramwrite_init_global
                0x00000000401359fd                vramwrite_exit_global
                0x0000000040135a0d                vt_exint_assert
                0x0000000040135a70                vt_generate_pagefault
                0x0000000040135af5                vmctl_vt_init
                0x0000000040135b49                vt_generate_external_int
                0x0000000040135b97                vt_update_exint
                0x0000000040135c15                vt_exint_pass
                0x0000000040135c32                vt_vmptrld
                0x000000004013627c                vt_ept_init
                0x000000004013636e                vt_ept_violation
                0x000000004013640a                vt_ept_tlbflush
                0x000000004013640f                vt_ept_updatecr3
                0x00000000401364c5                vt_ept_clear_all
                0x000000004013652e                vt_ept_map_1mb
                0x0000000040136596                message_exitreason
                0x000000004013670d                printexitreason
                0x0000000040137596                vt_available
                0x0000000040137632                vt__vmx_init
                0x000000004013767e                vt__vmxon
                0x0000000040137733                vt_vminit
                0x0000000040137793                vt_vmexit
                0x00000000401377b1                vt_init
                0x00000000401377fa                vt_enable_resume
                0x00000000401378e2                vt_resume
                0x00000000401379d2                vt_io
                0x0000000040137aff                vt_iopass
                0x0000000040138ad2                vt_update_exception_bmp
                0x00000000401391ad                vt_init_signal
                0x00000000401391fd                vt_start_vm
                0x000000004013979a                vt_msr_load_process64_msrs
                0x0000000040139850                vt_msr_own_process_msrs
                0x000000004013987f                vt_add_guest_msr
                0x00000000401399d3                vt_read_guest_msr
                0x0000000040139a39                vt_write_guest_msr
                0x0000000040139a99                vt_msr_update_lma
                0x0000000040139b39                vt_read_msr
                0x0000000040139e36                vt_write_msr
                0x000000004013a0d3                vt_msrpass
                0x000000004013a26f                vt_msr_init
                0x000000004013a3ba                vt_paging_map_1mb
                0x000000004013a3d9                vt_paging_flush_guest_tlb
                0x000000004013a43d                vt_paging_pagefault
                0x000000004013a476                vt_paging_tlbflush
                0x000000004013a495                vt_paging_invalidate
                0x000000004013a4cb                vt_paging_npf
                0x000000004013a502                vt_paging_updatecr3
                0x000000004013a526                vt_paging_spt_setcr3
                0x000000004013a55c                vt_paging_clear_all
                0x000000004013a595                vt_paging_get_gpat
                0x000000004013a5a4                vt_paging_set_gpat
                0x000000004013a5ee                vt_paging_apply_fixed_cr0
                0x000000004013a665                vt_paging_apply_fixed_cr4
                0x000000004013a6b9                vt_paging_pg_change
                0x000000004013a96c                vt_paging_init
                0x000000004013a9f6                vt_paging_start
                0x000000004013aa20                vt_panic_dump
                0x000000004013ac0d                vt_read_general_reg
                0x000000004013ad36                vt_write_general_reg
                0x000000004013ae2f                vt_read_control_reg
                0x000000004013aef0                vt_read_sreg_sel
                0x000000004013b003                vt_read_sreg_acr
                0x000000004013b0b7                vt_read_sreg_base
                0x000000004013b17c                vt_read_sreg_limit
                0x000000004013b23c                vt_read_ip
                0x000000004013b24c                vt_write_ip
                0x000000004013b26b                vt_read_flags
                0x000000004013b293                vt_write_flags
                0x000000004013b2b8                vt_read_gdtr
                0x000000004013b2d3                vt_write_gdtr
                0x000000004013b2e8                vt_read_idtr
                0x000000004013b331                vt_write_idtr
                0x000000004013b366                vt_write_control_reg
                0x000000004013b922                vt_get_current_regs_in_vmcs
                0x000000004013bbc5                vt_get_vmcs_regs_in_vmcs
                0x000000004013be00                vt_write_realmode_seg
                0x000000004013bf48                vt_writing_sreg
                0x000000004013bfd5                vt_reset
                0x000000004013c3ff                prepare_for_sleep
                0x000000004013c4d0                cancel_sleep
                0x000000004013c4f6                wakeup_main
                0x000000004013c582                wakeup_cont
                0x000000004013c6c6                wakeup_init
                0x000000004013c716                call_xsetbv
                0x000000004013c830                mpumul_64_64
                0x000000004013c850                mpudiv_128_32
                0x000000004013c870                ipchecksum
                0x000000004013c900                crc32
                0x000000004013c910                asm_vmlaunch_regs_64
                0x000000004013ca40                asm_vmresume_regs_64
                0x000000004013cb70                asm_vmrun_regs_64
                0x000000004013cc40                asm_vmrun_regs_nested_64
                0x000000004013cd18                callrealmode_start
                0x000000004013cd2e                callrealmode_start2
                0x000000004013d1ba                move_vmm_area32
                0x000000004013d1ba                callrealmode_end
                0x000000004013d1df                move_vmm_area64
                0x000000004013d208                int_handler
                0x000000004013d278                int_callfunc
                0x000000004013e000                syscall_entry_sysexit
                0x000000004013e02c                syscall_entry_lret
                0x000000004013e05c                ret_to_user32
                0x000000004013e068                syscall_entry_sysret64
                0x000000004013e0a8                ret_to_user64_sysret
                0x000000004013e0b8                syscall_entry_lret64
                0x000000004013e0f8                ret_to_user64
                0x000000004013f000                processuser_sysenter
                0x0000000040140000                processuser_no_sysenter
                0x0000000040141000                processuser_syscall
                0x0000000040142000                processuser_callgate64
                0x0000000040143180                memset
                0x0000000040143200                memcpy
                0x0000000040143240                strcmp
                0x0000000040143280                memcmp
                0x00000000401432c0                strlen
                0x0000000040143300                strncmp
                0x0000000040143320                sx_handler
                0x0000000040143380                thread_switch
                0x00000000401433a0                thread_start0
                0x0000000040143422                uefiutil_disconnect_pcidev_driver
                0x0000000040143462                uefiutil_netdev_get_mac_addr
                0x00000000401434bc                uefiutil_get_graphics_info
                0x00000000401435c4                uefi_param_ext_get_phys
                0x0000000040143668                nmi_handler
                0x00000000401436ce                nmi_get_count
                0x0000000040143701                nmi_inc_count
                0x0000000040143730                initipi_get_count
                0x0000000040143763                initipi_inc_count
                0x000000004014463e                vt_emul_vmxon
                0x0000000040144814                vt_emul_vmxon_in_vmx_root_mode
                0x000000004014489d                vt_shadow_vt_reset
                0x000000004014495e                vt_emul_vmxoff
                0x0000000040144983                vt_emul_vmclear
                0x0000000040144a6a                vt_emul_vmptrld
                0x0000000040144c9e                vt_emul_vmptrst
                0x0000000040144d21                vt_emul_invept
                0x0000000040144d9c                vt_emul_invvpid
                0x0000000040144e17                vt_emul_vmwrite
                0x0000000040144eb0                vt_emul_vmread
                0x0000000040144fad                vt_emul_vmlaunch
                0x0000000040144fc1                vt_emul_vmresume
                0x0000000040144ffa                mmioclr_register
                0x0000000040145075                mmioclr_unregister
                0x00000000401450c0                mmioclr_clear_hmap
                0x0000000040145133                mmioclr_clear_gmap
                0x00000000401451f7                get_init_task_stack
                0x0000000040145233                get_current_rsp_reg
                0x0000000040145275                get_current_gs_reg
                0x0000000040145295                get_current_cr3_reg
                0x00000000401452b5                get_current_fs_reg
                0x00000000401452d5                get_msr_gs_base
                0x00000000401452f5                find_task_from_cr3
                0x0000000040145300                enableSSE
                0x000000004014530d                core_init
                0x000000004014531d                alloc_handler_descriptor
                0x0000000040145331                core_io_modify_handler
                0x00000000401453f6                core_io_unregister_handler
                0x0000000040145480                core_io_handle_default
                0x000000004014572d                panic_oom
                0x0000000040145744                core_io_register_handler
                0x000000004014586d                matched_drhd_u
                0x00000000401458c6                parse_dmar_bios_report
                0x00000000401458d0                iommu_setup
                0x00000000401458d5                iodom_init
                0x0000000040145a5a                add_remap
                0x0000000040145a8e                create_dom
                0x0000000040145a98                pci_conceal_config_write
                0x0000000040145aa2                pci_conceal_config_read
                0x0000000040145bac                pci_conceal_new
                0x0000000040145fc5                pci_save_config_addr
                0x0000000040145ffc                pci_append_device
                0x000000004014602b                pci_dump_pci_dev_list
                0x0000000040146030                pci_find_driver_for_device
                0x000000004014603f                pci_find_driver_by_token
                0x000000004014609e                pci_find_virtual_driver_by_token
                0x00000000401460fd                pci_assign_virtual_device
                0x00000000401461ca                pci_config_addr_handler
                0x00000000401462e1                pci_set_bridge_callback
                0x00000000401463a0                pci_register_driver
                0x00000000401463ed                pci_register_virtual_driver
                0x000000004014643a                pci_register_intr_callback
                0x0000000040146454                pci_readwrite_config_mmio
                0x0000000040146517                pci_read_config_mmio
                0x000000004014653e                pci_write_config_mmio
                0x0000000040146565                pci_config_pmio_enter
                0x00000000401465c0                pci_config_pmio_leave
                0x000000004014662e                pci_readwrite_config_pmio
                0x00000000401466e5                pci_read_config_pmio
                0x000000004014670f                pci_write_config_pmio
                0x0000000040146739                pci_config_read
                0x00000000401467a1                pci_config_write
                0x0000000040146809                pci_handle_default_config_write
                0x000000004014692d                pci_handle_default_config_read
                0x0000000040147192                pci_config_data_handler
                0x0000000040147259                pci_config_mmio_handler
                0x00000000401472a5                pci_get_bar_info
                0x00000000401472bf                pci_set_bridge_io
                0x0000000040147604                pci_get_modifying_bar_info
                0x00000000401476cb                pci_driver_option_get_int
                0x0000000040147747                pci_driver_option_get_bool
                0x0000000040147828                pci_find_cap_offset
                0x00000000401478a7                pci_enable_device
                0x0000000040147914                pci_msi_set
                0x0000000040147a00                pci_msi_init
                0x0000000040147a9a                pci_msi_enable
                0x0000000040147ac9                pci_msi_disable
                0x0000000040147af8                pci_msi_to_ipi
                0x0000000040147b12                pci_register_msi_callback
                0x0000000040147bc3                pci_enable_msi_callback
                0x0000000040147bd9                pci_disable_msi_callback
                0x0000000040147be5                pci_print_device
                0x0000000040148112                pci_get_bridge_from_bus_no
                0x0000000040148154                pci_set_bridge_from_bus_no
                0x0000000040148614                pci_reconnect_device
                0x00000000401488f5                pci_possible_new_device
                0x00000000401489e1                pci_system_disconnect
                0x0000000040148ebb                pci_match
                0x000000004014965b                pci_match_add_compat
                0x0000000040149697                pci_match_find_driver
                0x00000000401496e8                pci_match_get_virtual_device
                0x000000004014a0ed                security_storage_check_lba
                0x000000004014a0f7                uhci_init
                0x000000004014aac9                uhci_current_frame_number
                0x000000004014aada                dump_td_byvirt
                0x000000004014ac7c                dump_td
                0x000000004014ad52                dump_qh
                0x000000004014af61                dump_frame
                0x000000004014b084                uhci_dump_all
                0x000000004014b2e3                uhci_error_status_string
                0x000000004014b8bf                uhci_shadow_buffer
                0x000000004014bb29                uhci_framelist_monitor
                0x000000004014d698                scan_gframelist
                0x000000004014ded9                uhci_create_urb
                0x000000004014dfbc                uhci_destroy_urb
                0x000000004014e0f8                uhci_destroy_unlinked_urbs
                0x000000004014e1d8                uhci_deactivate_urb
                0x000000004014e592                uhci_activate_urb
                0x000000004014eb53                uhci_reactivate_urb
                0x000000004014ebf6                uhci_submit_control
                0x000000004014f24f                uhci_submit_interrupt
                0x000000004014f2b7                uhci_submit_bulk
                0x000000004014f31f                uhci_check_urb_advance
                0x000000004014f35e                uhci_check_advance
                0x000000004014f568                init_hframelist
                0x000000004014f795                ehci_conceal_portroute
                0x000000004014f7b4                ehci_init
                0x0000000040150d48                ehci_shadow_buffer
                0x0000000040151024                get_gurb_by_address
                0x00000000401510b0                shadow_and_activate_urb
                0x0000000040151376                ehci_deactivate_urb
                0x0000000040151531                deactivate_and_delete_urb
                0x00000000401516fb                ehci_check_urb_advance
                0x00000000401517ba                ehci_check_advance
                0x0000000040151906                ehci_shadow_async_list
                0x00000000401519fa                ehci_cleanup_urbs
                0x0000000040151b72                ehci_end_monitor_async
                0x0000000040151be3                ehci_monitor_async_list
                0x00000000401521c9                ehci_submit_control
                0x00000000401526ae                ehci_submit_bulk
                0x00000000401526b8                ehci_submit_interrupt
                0x0000000040153dfb                usbmsc_init_handle
                0x0000000040153e45                SetBitmap
                0x0000000040153e64                ClearBitmap
                0x0000000040153e83                TestBitmap
                0x0000000040153ea3                reversebytes_uint32t
                0x0000000040153ecc                reversebytes_uint64t
                0x0000000040153ee1                mem_find_str
                0x0000000040153f91                parse_CBW
                0x0000000040153ffb                get_qtd_from_qtdm
                0x000000004015400f                my_log
                0x0000000040154064                _entropy_calc
                0x00000000401540f4                entropy_calc
                0x00000000401541da                buffer_byte_count
                0x000000004015420f                win_ransomtag_init
                0x000000004015422d                is_win_kernel_addr
                0x0000000040154245                win_read_virtaddr_data
                0x00000000401542b6                win_container_of
                0x00000000401542c1                win_get_KPCR
                0x00000000401542dc                win_get_KPRCB
                0x0000000040154305                win_get_cr3
                0x0000000040154320                win_get_CurrentThread
                0x0000000040154349                win_get_CurrentProcessInfo
                0x0000000040154495                win_print_process_info
                0x0000000040154544                traverse_excluded_process_list
                0x0000000040154593                traverse_entropy_excluded_process_list
                0x00000000401545e2                win_get_FileObjectInfo
                0x0000000040154633                win_is_MFT_or_Bitmap
                0x000000004015468f                win_get_IrpInfo
                0x000000004015484d                traverse_IrpList
                0x0000000040154965                win_print_irp_info
                0x0000000040154b2c                win_AddToSectorPageMap
                0x0000000040154b60                win_load_bitmap
                0x0000000040154b8d                win_AddToBitmap
                0x0000000040154bdd                win_CheckBitmap
                0x0000000040154d51                win_AddTag
                0x0000000040154d7a                win_SearchSectorMap
                0x0000000040154dec                win_traverse_process_blacklist
                0x0000000040154e38                win_add_to_process_blacklist
                0x0000000040154f0a                win_add_to_high_entropylist
                0x0000000040155017                win_traverse_high_entropylist
                0x0000000040155063                win_traverse_patternlist
                0x000000004015512f                win_add_to_patternlist
                0x000000004015546b                win_del_from_patternlist
                0x00000000401554f2                win_Handle_Recovery
                0x0000000040155646                ParseMFT
                0x0000000040155914                win_ransomtag_storage_handle_sectors
                0x0000000040155a59                win_DetermineTag
                0x0000000040155ad9                win_analyse
                0x0000000040155df6                usbhub_init_handle
                0x0000000040155e65                hub_portdevice_register
                0x00000000401560bf                usb_set_debug
                0x00000000401560ca                usb_init
                0x00000000401560cf                usb_find_busses
                0x00000000401561bd                usb_get_busses
                0x00000000401561c9                usb_get_bus
                0x00000000401561e8                usb_find_devices
                0x0000000040156237                usb_open
                0x0000000040156284                usb_close
                0x0000000040156298                usb_resetep
                0x00000000401562a2                usb_clear_halt
                0x00000000401562ac                usb_reset
                0x00000000401562b6                usb_claim_interface
                0x00000000401562c3                usb_release_interface
                0x00000000401562d4                usb_set_configuration
                0x0000000040156306                usb_set_altinterface
                0x000000004015633a                usb_control_msg
                0x0000000040156367                usb_get_string
                0x000000004015639d                usb_get_string_simple
                0x00000000401564ba                usb_get_descriptor
                0x00000000401564f4                usb_get_descriptor_early
                0x000000004015652c                usb_get_descriptor_by_endpoint
                0x0000000040156562                usb_bulk_write
                0x0000000040156739                usb_interrupt_write
                0x0000000040156910                usb_bulk_read
                0x0000000040156b77                usb_interrupt_read
                0x0000000040156dde                usb_register_host
                0x0000000040156ef2                usb_unregister_devices
                0x0000000040156f26                usb_sc_lock
                0x0000000040156fa2                usb_sc_unlock
                0x00000000401571e7                free_config_descriptors
                0x00000000401577a0                free_device
                0x0000000040157ff4                handle_connect_status
                0x0000000040158081                handle_port_reset
                0x0000000040158110                dprintf_port
                0x0000000040158115                usb_init_device_monitor
                0x0000000040158175                usb_init_device
                0x00000000401581dd                usb_new_dev_handle
                0x0000000040158287                usbhid_init_handle
                0x0000000040158345                usb_hook_register_ex
                0x0000000040158474                usb_hook_register
                0x00000000401584a6                usb_hook_unregister
                0x000000004015852f                usb_hook_process
                0x0000000040158932                _dprintf
                0x0000000040158982                _dprintft
                0x0000000040158a42                storage_premap_buf
                0x0000000040158a4c                storage_premap_handle_sectors
                0x0000000040158cf9                storage_handle_sectors
                0x0000000040158efd                storage_new
                0x00000000401593de                storage_free
                0x00000000401593ed                storage_init
                0x0000000040159615                aes_xts_init
                0x000000004015964c                crypto_find
                0x000000004015969f                crypto_register
                0x00000000401596f4                crypto_init
                0x000000004015974d                crypto_none_init
                0x0000000040159a92                storage_get_num_hc
                0x0000000040159ac3                storage_hc_open
                0x0000000040159b9c                storage_hc_close
                0x0000000040159bea                storage_hc_hook_register
                0x0000000040159c65                storage_hc_hook_unregister
                0x0000000040159d05                storage_hc_register
                0x0000000040159ebb                storage_hc_unregister
                0x0000000040159fc7                storage_hc_scandev
                0x000000004015a00e                storage_hc_dev_open
                0x000000004015a148                storage_hc_dev_atacommand
                0x000000004015a2e7                storage_hc_dev_close
                0x000000004015a3b3                storage_io_init
                0x000000004015a3c7                storage_io_deinit
                0x000000004015a3d6                storage_io_get_num_devices
                0x000000004015a49a                storage_io_aget_size
                0x000000004015a5c5                storage_io_aread
                0x000000004015a79f                storage_io_awrite
                0x000000004015adc0                net_register
                0x000000004015ae3e                net_new_nic
                0x000000004015af0d                net_init
                0x000000004015af53                net_start
                0x000000004015afa2                net_premap_recvbuf
                0x000000004015afc4                AES_set_encrypt_key
                0x000000004015b3fa                AES_set_decrypt_key
                0x000000004015b621                AES_encrypt
                0x000000004015bae8                AES_decrypt
                0x000000004015bf72                chelp_snprintf
                0x000000004015bfb3                chelp_sprintf
                0x000000004015bffe                chelp_print
                0x000000004015c01a                chelp_printf
                0x000000004015c086                chelp_mod_64_32_32
                0x000000004015c09a                chelp_div_64_32_32
                0x000000004015c0ac                chelp_div_64_32_64
                0x000000004015c0be                chelp_mul_64_64_64
                0x000000004015c0ca                BIO_printf
                0x000000004015c10b                BIO_snprintf
                0x000000004015c145                chelp_abort
                0x000000004015c15c                RAND_poll
                0x000000004015c17f                InitCryptoLibrary
                0x000000004015c1f6                chelp_malloc
                0x000000004015c211                chelp_realloc
                0x000000004015c235                chelp_free
                0x000000004015c24a                chelp_swap
                0x000000004015c27b                chelp_qsort
                0x000000004015c5c9                chelp_bsearch
                0x000000004015c69d                chelp_memchr
                0x000000004015c6d4                chelp_memmove
                0x000000004015c74d                chelp_memcmp
                0x000000004015c79a                chelp_memcpy
                0x000000004015c7cd                chelp_memset
                0x000000004015c7f4                chelp_isupper
                0x000000004015c806                chelp_islower
                0x000000004015c818                chelp_toupper
                0x000000004015c823                chelp_tolower
                0x000000004015c82e                chelp_isspace
                0x000000004015c848                chelp_isdigit
                0x000000004015c85a                chelp_isxdigit
                0x000000004015c87c                chelp_isalpha
                0x000000004015c891                chelp_isalnum
                0x000000004015c8b6                chelp_strtoul_ex
                0x000000004015ca71                chelp_strtol
                0x000000004015ca85                chelp_strtoul
                0x000000004015ca99                chelp_strcpy
                0x000000004015cac5                chelp_strncpy
                0x000000004015cb1a                chelp_strcat
                0x000000004015cb5f                chelp_strcmp
                0x000000004015cbbb                chelp_strncmp
                0x000000004015cca6                chelp_stricmp
                0x000000004015cce4                chelp_strchr
                0x000000004015cd11                chelp_strrchr
                0x000000004015cd3c                chelp_strlen
                0x000000004015cd76                chelp_strncasecmp
                0x000000004015cdc4                decryptcfg
                0x000000004015ce45                AES_cbc_encrypt
                0x000000004015ce6c                OpenSSL_add_all_ciphers
                0x000000004015d30d                OpenSSL_add_all_digests
                0x000000004015e101                EVP_aes_128_cbc
                0x000000004015e10b                EVP_aes_128_cfb128
                0x000000004015e115                EVP_aes_128_ofb
                0x000000004015e11f                EVP_aes_128_ecb
                0x000000004015e129                EVP_aes_192_cbc
                0x000000004015e133                EVP_aes_192_cfb128
                0x000000004015e13d                EVP_aes_192_ofb
                0x000000004015e147                EVP_aes_192_ecb
                0x000000004015e151                EVP_aes_256_cbc
                0x000000004015e15b                EVP_aes_256_cfb128
                0x000000004015e165                EVP_aes_256_ofb
                0x000000004015e16f                EVP_aes_256_ecb
                0x000000004015e179                EVP_aes_128_cfb1
                0x000000004015e183                EVP_aes_192_cfb1
                0x000000004015e18d                EVP_aes_256_cfb1
                0x000000004015e197                EVP_aes_128_cfb8
                0x000000004015e1a1                EVP_aes_192_cfb8
                0x000000004015e1ab                EVP_aes_256_cfb8
                0x000000004015e4ae                EVP_bf_cbc
                0x000000004015e4b8                EVP_bf_cfb64
                0x000000004015e4c2                EVP_bf_ofb
                0x000000004015e4cc                EVP_bf_ecb
                0x000000004015e7cf                EVP_cast5_cbc
                0x000000004015e7d9                EVP_cast5_cfb64
                0x000000004015e7e3                EVP_cast5_ofb
                0x000000004015e7ed                EVP_cast5_ecb
                0x000000004015edb5                EVP_des_cbc
                0x000000004015edbf                EVP_des_cfb64
                0x000000004015edc9                EVP_des_ofb
                0x000000004015edd3                EVP_des_ecb
                0x000000004015eddd                EVP_des_cfb1
                0x000000004015ede7                EVP_des_cfb8
                0x000000004015f470                EVP_des_ede_cbc
                0x000000004015f47a                EVP_des_ede_cfb64
                0x000000004015f484                EVP_des_ede_ofb
                0x000000004015f48e                EVP_des_ede_ecb
                0x000000004015f498                EVP_des_ede3_cbc
                0x000000004015f4a2                EVP_des_ede3_cfb64
                0x000000004015f4ac                EVP_des_ede3_ofb
                0x000000004015f4b6                EVP_des_ede3_ecb
                0x000000004015f4c0                EVP_des_ede3_cfb1
                0x000000004015f4ca                EVP_des_ede3_cfb8
                0x000000004015f4d4                EVP_des_ede
                0x000000004015f4de                EVP_des_ede3
                0x000000004015f83b                EVP_idea_cbc
                0x000000004015f845                EVP_idea_cfb64
                0x000000004015f84f                EVP_idea_ofb
                0x000000004015f859                EVP_idea_ecb
                0x000000004015fd98                EVP_rc2_cbc
                0x000000004015fda2                EVP_rc2_cfb64
                0x000000004015fdac                EVP_rc2_ofb
                0x000000004015fdb6                EVP_rc2_ecb
                0x000000004015fdc0                EVP_rc2_64_cbc
                0x000000004015fdca                EVP_rc2_40_cbc
                0x000000004015fe23                EVP_rc4
                0x000000004015fe2d                EVP_rc4_40
                0x000000004015ff98                EVP_desx_cbc
                0x000000004015ffa2                DES_ecb3_encrypt
                0x0000000040160079                DES_options
                0x00000000401600d8                DES_ecb_encrypt
                0x000000004016087c                ERR_get_implementation
                0x0000000040160892                ERR_set_implementation
                0x00000000401608f9                ERR_load_ERR_strings
                0x0000000040160a28                ERR_load_strings
                0x0000000040160a4c                ERR_unload_strings
                0x0000000040160aa7                ERR_free_strings
                0x0000000040160ac0                ERR_get_string_table
                0x0000000040160add                ERR_get_err_state_table
                0x0000000040160afb                ERR_release_err_state_table
                0x0000000040160b23                ERR_lib_error_string
                0x0000000040160b63                ERR_func_error_string
                0x0000000040160bae                ERR_reason_error_string
                0x0000000040160c19                ERR_error_string_n
                0x0000000040160dd1                ERR_error_string
                0x0000000040160e03                ERR_remove_thread_state
                0x0000000040160e4c                ERR_remove_state
                0x0000000040160e60                ERR_get_state
                0x0000000040160f7b                ERR_put_error
                0x0000000040161082                ERR_clear_error
                0x000000004016130b                ERR_get_error
                0x000000004016133a                ERR_get_error_line
                0x0000000040161365                ERR_get_error_line_data
                0x000000004016138a                ERR_peek_error
                0x00000000401613b9                ERR_peek_error_line
                0x00000000401613e4                ERR_peek_error_line_data
                0x0000000040161409                ERR_peek_last_error
                0x0000000040161438                ERR_peek_last_error_line
                0x0000000040161463                ERR_peek_last_error_line_data
                0x0000000040161488                ERR_get_next_error_library
                0x00000000401614a1                ERR_set_error_data
                0x000000004016150c                ERR_add_error_data
                0x000000004016163d                ERR_set_mark
                0x000000004016166e                ERR_pop_to_mark
                0x0000000040161741                ERR_load_crypto_strings
                0x00000000401617d2                ASN1_TYPE_set_octetstring
                0x0000000040161833                ASN1_TYPE_get_octetstring
                0x0000000040161892                ASN1_TYPE_set_int_octetstring
                0x00000000401619b9                ASN1_TYPE_get_int_octetstring
                0x0000000040161b89                EVP_CIPHER_CTX_init
                0x0000000040161ba2                EVP_CIPHER_CTX_new
                0x0000000040161bdc                EVP_EncryptUpdate
                0x0000000040161d95                EVP_EncryptFinal_ex
                0x0000000040161e77                EVP_EncryptFinal
                0x0000000040161e86                EVP_DecryptUpdate
                0x0000000040161fc1                EVP_CipherUpdate
                0x0000000040161fdd                EVP_DecryptFinal_ex
                0x0000000040162186                EVP_CipherFinal_ex
                0x00000000401621a2                EVP_DecryptFinal
                0x00000000401621b1                EVP_CipherFinal
                0x00000000401621cd                EVP_CIPHER_CTX_cleanup
                0x0000000040162234                EVP_CIPHER_CTX_free
                0x000000004016225d                EVP_CIPHER_CTX_set_padding
                0x000000004016227f                EVP_CIPHER_CTX_ctrl
                0x0000000040162313                EVP_CipherInit_ex
                0x0000000040162595                EVP_CipherInit
                0x00000000401625eb                EVP_EncryptInit
                0x0000000040162600                EVP_DecryptInit
                0x0000000040162615                EVP_EncryptInit_ex
                0x000000004016262a                EVP_DecryptInit_ex
                0x000000004016263f                EVP_CIPHER_CTX_set_key_length
                0x00000000401626a4                EVP_CIPHER_CTX_rand_key
                0x00000000401626de                EVP_CIPHER_CTX_copy
                0x00000000401627c6                ERR_load_EVP_strings
                0x0000000040162801                EVP_CIPHER_param_to_asn1
                0x000000004016281f                EVP_CIPHER_asn1_to_param
                0x000000004016283d                EVP_CIPHER_get_asn1_iv
                0x00000000401628ca                EVP_CIPHER_set_asn1_iv
                0x0000000040162929                EVP_CIPHER_type
                0x0000000040162a5d                EVP_CIPHER_block_size
                0x0000000040162a65                EVP_CIPHER_CTX_block_size
                0x0000000040162a70                EVP_Cipher
                0x0000000040162a82                EVP_CIPHER_CTX_cipher
                0x0000000040162a8a                EVP_CIPHER_flags
                0x0000000040162a93                EVP_CIPHER_CTX_flags
                0x0000000040162a9f                EVP_CIPHER_CTX_get_app_data
                0x0000000040162aa8                EVP_CIPHER_CTX_set_app_data
                0x0000000040162ab1                EVP_CIPHER_iv_length
                0x0000000040162ab9                EVP_CIPHER_CTX_iv_length
                0x0000000040162ac4                EVP_CIPHER_key_length
                0x0000000040162acc                EVP_CIPHER_CTX_key_length
                0x0000000040162ad4                EVP_CIPHER_nid
                0x0000000040162adb                EVP_CIPHER_CTX_nid
                0x0000000040162ae5                EVP_MD_block_size
                0x0000000040162aed                EVP_MD_type
                0x0000000040162af4                EVP_MD_pkey_type
                0x0000000040162afc                EVP_MD_size
                0x0000000040162b33                EVP_MD_flags
                0x0000000040162b3c                EVP_MD_CTX_md
                0x0000000040162b4d                EVP_MD_CTX_set_flags
                0x0000000040162b59                EVP_MD_CTX_clear_flags
                0x0000000040162b67                EVP_MD_CTX_test_flags
                0x0000000040162b71                EVP_CIPHER_CTX_set_flags
                0x0000000040162b7d                EVP_CIPHER_CTX_clear_flags
                0x0000000040162b8b                EVP_CIPHER_CTX_test_flags
                0x0000000040162b95                idea_encrypt
                0x0000000040163568                idea_cbc_encrypt
                0x0000000040163b97                idea_cfb64_encrypt
                0x0000000040163dae                idea_options
                0x0000000040163db8                idea_ecb_encrypt
                0x0000000040163e6c                idea_ofb64_encrypt
                0x000000004016408b                idea_set_encrypt_key
                0x0000000040164202                idea_set_decrypt_key
                0x00000000401643a8                lh_strhash
                0x000000004016441e                lh_new
                0x0000000040164580                lh_free
                0x00000000401645f1                lh_insert
                0x00000000401647b5                lh_delete
                0x00000000401648e3                lh_retrieve
                0x0000000040164929                lh_doall
                0x0000000040164992                lh_doall_arg
                0x0000000040164a02                lh_num_items
                0x0000000040164a54                EVP_dss
                0x0000000040164a9d                EVP_dss1
                0x0000000040164ae6                EVP_ecdsa
                0x0000000040164b2f                EVP_md4
                0x0000000040164b78                EVP_md5
                0x0000000040164bc1                EVP_ripemd160
                0x0000000040164c0a                EVP_sha
                0x0000000040164cf7                EVP_sha1
                0x0000000040164d01                EVP_sha224
                0x0000000040164d0b                EVP_sha256
                0x0000000040164d15                EVP_sha384
                0x0000000040164d1f                EVP_sha512
                0x0000000040164d29                MD4_Init
                0x0000000040164d6e                md4_block_data_order
                0x00000000401652db                MD4_Update
                0x0000000040165417                MD4_Transform
                0x000000004016542b                MD4_Final
                0x00000000401654ff                MD5_Init
                0x0000000040165544                md5_block_data_order
                0x0000000040165c59                MD5_Update
                0x0000000040165d95                MD5_Transform
                0x0000000040165da9                MD5_Final
                0x0000000040165ead                CRYPTO_set_mem_functions
                0x0000000040165f20                CRYPTO_set_mem_ex_functions
                0x0000000040165f93                CRYPTO_set_locked_mem_functions
                0x0000000040165fd0                CRYPTO_set_locked_mem_ex_functions
                0x000000004016600d                CRYPTO_set_mem_debug_functions
                0x0000000040166044                CRYPTO_get_mem_functions
                0x0000000040166098                CRYPTO_get_mem_ex_functions
                0x00000000401660e8                CRYPTO_get_locked_mem_functions
                0x000000004016611c                CRYPTO_get_locked_mem_ex_functions
                0x000000004016614e                CRYPTO_get_mem_debug_functions
                0x000000004016619e                CRYPTO_malloc_locked
                0x000000004016624e                CRYPTO_free_locked
                0x0000000040166298                CRYPTO_malloc
                0x0000000040166348                CRYPTO_strdup
                0x0000000040166391                CRYPTO_realloc
                0x0000000040166440                CRYPTO_realloc_clean
                0x0000000040166523                CRYPTO_free
                0x000000004016656d                CRYPTO_remalloc
                0x000000004016659d                CRYPTO_set_mem_debug_options
                0x00000000401665b6                CRYPTO_get_mem_debug_options
                0x00000000401665d4                OPENSSL_cleanse
                0x0000000040166a60                CRYPTO_mem_ctrl
                0x0000000040166beb                CRYPTO_is_mem_check_on
                0x0000000040166c69                CRYPTO_dbg_set_options
                0x0000000040166c75                CRYPTO_dbg_get_options
                0x0000000040166c81                CRYPTO_push_info_
                0x0000000040166d4f                CRYPTO_pop_info
                0x0000000040166d93                CRYPTO_remove_all_info
                0x0000000040166ddd                CRYPTO_dbg_malloc
                0x0000000040166f7d                CRYPTO_dbg_free
                0x0000000040166ff8                CRYPTO_dbg_realloc
                0x0000000040167099                CRYPTO_mem_leaks
                0x00000000401671bb                CRYPTO_mem_leaks_cb
                0x0000000040167294                EVP_add_cipher
                0x00000000401672e5                EVP_add_digest
                0x000000004016737e                EVP_get_cipherbyname
                0x0000000040167392                EVP_get_digestbyname
                0x00000000401673a6                EVP_cleanup
                0x00000000401673f2                EVP_CIPHER_do_all
                0x000000004016741b                EVP_CIPHER_do_all_sorted
                0x0000000040167444                EVP_MD_do_all
                0x000000004016746d                EVP_MD_do_all_sorted
                0x00000000401675af                OBJ_NAME_init
                0x0000000040167601                OBJ_NAME_new_index
                0x000000004016776a                OBJ_NAME_get
                0x0000000040167811                OBJ_NAME_add
                0x00000000401678ef                OBJ_NAME_remove
                0x00000000401679a5                OBJ_NAME_do_all
                0x00000000401679d3                OBJ_NAME_do_all_sorted
                0x0000000040167a78                OBJ_NAME_cleanup
                0x0000000040167d3d                check_defer
                0x0000000040167d5f                OBJ_cleanup
                0x0000000040167dd5                OBJ_new_nid
                0x0000000040167de8                OBJ_add_object
                0x0000000040167fb1                OBJ_nid2obj
                0x0000000040168075                OBJ_nid2sn
                0x000000004016813c                OBJ_nid2ln
                0x0000000040168204                OBJ_bsearch_ex_
                0x0000000040168309                OBJ_bsearch_
                0x000000004016831e                OBJ_obj2nid
                0x00000000401683ab                OBJ_obj2txt
                0x000000004016874c                OBJ_ln2nid
                0x00000000401687cb                OBJ_sn2nid
                0x000000004016884a                OBJ_txt2obj
                0x000000004016894b                OBJ_txt2nid
                0x000000004016897e                OBJ_create
                0x0000000040168a76                OBJ_create_objects
                0x0000000040168bdb                ERR_load_OBJ_strings
                0x0000000040168c16                OBJ_dup
                0x0000000040168ddf                OBJ_cmp
                0x0000000040168e01                ERR_load_OCSP_strings
                0x0000000040168e3c                DES_ede3_ofb64_encrypt
                0x0000000040169000                DES_ofb64_encrypt
                0x00000000401691b3                PKCS5_PBKDF2_HMAC
                0x000000004016949c                PKCS5_PBKDF2_HMAC_SHA1
                0x00000000401694f3                PKCS5_v2_PBE_keyivgen
                0x0000000040169916                d2i_PBE2PARAM
                0x000000004016992a                i2d_PBE2PARAM
                0x000000004016993e                PBE2PARAM_new
                0x0000000040169952                PBE2PARAM_free
                0x0000000040169966                d2i_PBKDF2PARAM
                0x000000004016997a                i2d_PBKDF2PARAM
                0x000000004016998e                PBKDF2PARAM_new
                0x00000000401699a2                PBKDF2PARAM_free
                0x00000000401699b6                PKCS5_pbe2_set_iv
                0x0000000040169eae                PKCS5_pbe2_set
                0x0000000040169ec9                ERR_load_PEM_strings
                0x0000000040169f04                ERR_load_PKCS12_strings
                0x0000000040169f3f                ERR_load_PKCS7_strings
                0x0000000040169f7a                ERR_load_RAND_strings
                0x0000000040169fb5                RAND_set_rand_method
                0x0000000040169fc6                RAND_get_rand_method
                0x0000000040169ff5                RAND_cleanup
                0x000000004016a01f                RAND_seed
                0x000000004016a04d                RAND_add
                0x000000004016a090                RAND_bytes
                0x000000004016a0cf                RAND_pseudo_bytes
                0x000000004016a10e                RAND_status
                0x000000004016a136                RC2_encrypt
                0x000000004016a269                RC2_decrypt
                0x000000004016a3ca                RC2_cbc_encrypt
                0x000000004016a9db                RC2_ecb_encrypt
                0x000000004016aa9d                RC2_set_key
                0x000000004016aba6                RC2_cfb64_encrypt
                0x000000004016adb1                RC2_ofb64_encrypt
                0x000000004016af5c                RC4
                0x000000004016b35e                RC4_options
                0x000000004016b368                RC4_set_key
                0x000000004016b461                RIPEMD160_Init
                0x000000004016b4ad                ripemd160_block_data_order
                0x000000004016c8b2                RIPEMD160_Update
                0x000000004016c9ee                RIPEMD160_Transform
                0x000000004016ca02                RIPEMD160_Final
                0x000000004016cade                ERR_load_RSA_strings
                0x000000004016cb19                RSA_sign
                0x000000004016cda4                int_rsa_verify
                0x000000004016d14d                RSA_verify
                0x000000004016d18d                DES_set_odd_parity
                0x000000004016d1ab                DES_check_key_parity
                0x000000004016d1d6                DES_is_weak_key
                0x000000004016d229                DES_set_key_unchecked
                0x000000004016d4d6                DES_set_key_checked
                0x000000004016d52e                DES_set_key
                0x000000004016d55b                DES_key_sched
                0x000000004016e6c5                SHA1_Update
                0x000000004016e801                SHA1_Transform
                0x000000004016e815                SHA1_Final
                0x000000004016e903                SHA1_Init
                0x000000004016f8fb                SHA224_Init
                0x000000004016f963                SHA256_Init
                0x000000004016f9cb                SHA256_Update
                0x000000004016fb07                SHA224_Update
                0x000000004016fb16                SHA256_Transform
                0x000000004016fb2a                SHA256_Final
                0x000000004016fc70                SHA224
                0x000000004016fce2                SHA256
                0x000000004016fd54                SHA224_Final
                0x00000000401713d9                SHA384_Init
                0x0000000040171476                SHA512_Init
                0x0000000040171513                SHA512_Final
                0x0000000040171778                SHA384_Final
                0x0000000040171787                SHA512_Update
                0x00000000401718ab                SHA384_Update
                0x00000000401718ba                SHA512_Transform
                0x00000000401718ce                SHA384
                0x0000000040171946                SHA512
                0x0000000040172a84                SHA_Update
                0x0000000040172bc0                SHA_Transform
                0x0000000040172bd4                SHA_Final
                0x0000000040172cc2                SHA_Init
                0x0000000040172d0e                sk_set_cmp_func
                0x0000000040172d27                sk_new
                0x0000000040172dd5                sk_new_null
                0x0000000040172de9                sk_insert
                0x0000000040172e9d                sk_delete
                0x0000000040172f10                sk_delete_ptr
                0x0000000040172f4d                sk_push
                0x0000000040172f5e                sk_unshift
                0x0000000040172f72                sk_shift
                0x0000000040172f9a                sk_pop
                0x0000000040172fc1                sk_zero
                0x0000000040172ffa                sk_free
                0x000000004017302c                sk_dup
                0x00000000401730c6                sk_pop_free
                0x000000004017311f                sk_num
                0x0000000040173131                sk_value
                0x000000004017315a                sk_set
                0x0000000040173186                sk_sort
                0x0000000040173268                sk_find
                0x000000004017327c                sk_find_ex
                0x0000000040173290                sk_is_sorted
                0x000000004017375e                ASN1_tag2bit
                0x0000000040173778                asn1_ex_c2i
                0x0000000040173fa2                ASN1_item_ex_d2i
                0x000000004017496f                ASN1_item_d2i
                0x0000000040174ef2                ASN1_template_d2i
                0x0000000040174f4b                asn1_ex_i2c
                0x0000000040175200                ASN1_item_ex_i2d
                0x00000000401756f3                ASN1_item_ndef_i2d
                0x0000000040175707                ASN1_item_i2d
                0x0000000040175bf6                ASN1_template_i2d
                0x0000000040175c10                ASN1_primitive_free
                0x0000000040175f9e                ASN1_item_free
                0x0000000040175fbe                ASN1_item_ex_free
                0x0000000040175fd2                ASN1_template_free
                0x000000004017610b                ASN1_primitive_new
                0x0000000040176583                ASN1_item_ex_new
                0x0000000040176597                ASN1_item_new
                0x00000000401765c5                ASN1_template_new
                0x000000004017666c                d2i_ASN1_INTEGER
                0x0000000040176680                i2d_ASN1_INTEGER
                0x0000000040176694                ASN1_INTEGER_new
                0x00000000401766a8                ASN1_INTEGER_free
                0x00000000401766bc                d2i_ASN1_ENUMERATED
                0x00000000401766d0                i2d_ASN1_ENUMERATED
                0x00000000401766e4                ASN1_ENUMERATED_new
                0x00000000401766f8                ASN1_ENUMERATED_free
                0x000000004017670c                d2i_ASN1_BIT_STRING
                0x0000000040176720                i2d_ASN1_BIT_STRING
                0x0000000040176734                ASN1_BIT_STRING_new
                0x0000000040176748                ASN1_BIT_STRING_free
                0x000000004017675c                d2i_ASN1_OCTET_STRING
                0x0000000040176770                i2d_ASN1_OCTET_STRING
                0x0000000040176784                ASN1_OCTET_STRING_new
                0x0000000040176798                ASN1_OCTET_STRING_free
                0x00000000401767ac                d2i_ASN1_NULL
                0x00000000401767c0                i2d_ASN1_NULL
                0x00000000401767d4                ASN1_NULL_new
                0x00000000401767e8                ASN1_NULL_free
                0x00000000401767fc                d2i_ASN1_UTF8STRING
                0x0000000040176810                i2d_ASN1_UTF8STRING
                0x0000000040176824                ASN1_UTF8STRING_new
                0x0000000040176838                ASN1_UTF8STRING_free
                0x000000004017684c                d2i_ASN1_PRINTABLESTRING
                0x0000000040176860                i2d_ASN1_PRINTABLESTRING
                0x0000000040176874                ASN1_PRINTABLESTRING_new
                0x0000000040176888                ASN1_PRINTABLESTRING_free
                0x000000004017689c                d2i_ASN1_T61STRING
                0x00000000401768b0                i2d_ASN1_T61STRING
                0x00000000401768c4                ASN1_T61STRING_new
                0x00000000401768d8                ASN1_T61STRING_free
                0x00000000401768ec                d2i_ASN1_IA5STRING
                0x0000000040176900                i2d_ASN1_IA5STRING
                0x0000000040176914                ASN1_IA5STRING_new
                0x0000000040176928                ASN1_IA5STRING_free
                0x000000004017693c                d2i_ASN1_GENERALSTRING
                0x0000000040176950                i2d_ASN1_GENERALSTRING
                0x0000000040176964                ASN1_GENERALSTRING_new
                0x0000000040176978                ASN1_GENERALSTRING_free
                0x000000004017698c                d2i_ASN1_UTCTIME
                0x00000000401769a0                i2d_ASN1_UTCTIME
                0x00000000401769b4                ASN1_UTCTIME_new
                0x00000000401769c8                ASN1_UTCTIME_free
                0x00000000401769dc                d2i_ASN1_GENERALIZEDTIME
                0x00000000401769f0                i2d_ASN1_GENERALIZEDTIME
                0x0000000040176a04                ASN1_GENERALIZEDTIME_new
                0x0000000040176a18                ASN1_GENERALIZEDTIME_free
                0x0000000040176a2c                d2i_ASN1_VISIBLESTRING
                0x0000000040176a40                i2d_ASN1_VISIBLESTRING
                0x0000000040176a54                ASN1_VISIBLESTRING_new
                0x0000000040176a68                ASN1_VISIBLESTRING_free
                0x0000000040176a7c                d2i_ASN1_UNIVERSALSTRING
                0x0000000040176a90                i2d_ASN1_UNIVERSALSTRING
                0x0000000040176aa4                ASN1_UNIVERSALSTRING_new
                0x0000000040176ab8                ASN1_UNIVERSALSTRING_free
                0x0000000040176acc                d2i_ASN1_BMPSTRING
                0x0000000040176ae0                i2d_ASN1_BMPSTRING
                0x0000000040176af4                ASN1_BMPSTRING_new
                0x0000000040176b08                ASN1_BMPSTRING_free
                0x0000000040176b1c                d2i_ASN1_TYPE
                0x0000000040176b30                i2d_ASN1_TYPE
                0x0000000040176b44                ASN1_TYPE_new
                0x0000000040176b58                ASN1_TYPE_free
                0x0000000040176b6c                d2i_ASN1_PRINTABLE
                0x0000000040176b80                i2d_ASN1_PRINTABLE
                0x0000000040176b94                ASN1_PRINTABLE_new
                0x0000000040176ba8                ASN1_PRINTABLE_free
                0x0000000040176bbc                d2i_DISPLAYTEXT
                0x0000000040176bd0                i2d_DISPLAYTEXT
                0x0000000040176be4                DISPLAYTEXT_new
                0x0000000040176bf8                DISPLAYTEXT_free
                0x0000000040176c0c                d2i_DIRECTORYSTRING
                0x0000000040176c20                i2d_DIRECTORYSTRING
                0x0000000040176c34                DIRECTORYSTRING_new
                0x0000000040176c48                DIRECTORYSTRING_free
                0x0000000040176c5c                d2i_ASN1_SEQUENCE_ANY
                0x0000000040176c70                i2d_ASN1_SEQUENCE_ANY
                0x0000000040176c84                d2i_ASN1_SET_ANY
                0x0000000040176c98                i2d_ASN1_SET_ANY
                0x0000000040176cde                asn1_get_choice_selector
                0x0000000040176ced                asn1_set_choice_selector
                0x0000000040176cff                asn1_do_lock
                0x0000000040176d5b                asn1_enc_init
                0x0000000040176d85                asn1_enc_free
                0x0000000040176dc8                asn1_enc_save
                0x0000000040176e4e                asn1_enc_restore
                0x0000000040176ec8                asn1_get_field_ptr
                0x0000000040176ee0                asn1_do_adb
                0x0000000040176f97                ERR_load_UI_strings
                0x0000000040176fd2                ERR_load_X509V3_strings
                0x000000004017700d                ERR_load_X509_strings
                0x0000000040177048                d2i_X509_ALGOR
                0x000000004017705c                i2d_X509_ALGOR
                0x0000000040177070                X509_ALGOR_new
                0x0000000040177084                X509_ALGOR_free
                0x0000000040177098                d2i_X509_ALGORS
                0x00000000401770ac                i2d_X509_ALGORS
                0x00000000401770c0                X509_ALGOR_dup
                0x00000000401770d7                X509_ALGOR_set0
                0x0000000040177197                X509_ALGOR_get0
                0x00000000401771d0                d2i_X509_SIG
                0x00000000401771e4                i2d_X509_SIG
                0x00000000401771f8                X509_SIG_new
                0x000000004017720c                X509_SIG_free
                0x0000000040177220                DES_xcbc_encrypt
                0x0000000040177992                ERR_load_TS_strings
                0x00000000401779cd                ERR_load_CMS_strings
                0x0000000040177a57                OBJ_find_sigid_algs
                0x0000000040177ae1                OBJ_find_sigid_by_algs
                0x0000000040177b6b                OBJ_add_sigid
                0x0000000040177c7d                OBJ_sigid_free
                0x0000000040177cc4                CRYPTO_cbc128_encrypt
                0x0000000040177e2c                CRYPTO_cbc128_decrypt
                0x0000000040178089                EVP_whirlpool
                0x0000000040178093                WHIRLPOOL_Init
                0x00000000401780b1                WHIRLPOOL_BitUpdate
                0x000000004017840a                WHIRLPOOL_Update
                0x00000000401784d7                WHIRLPOOL_Final
                0x00000000401785f8                WHIRLPOOL
                0x000000004017865f                whirlpool_block
                0x00000000401791c2                ASN1_BIT_STRING_set
                0x00000000401791d1                i2c_ASN1_BIT_STRING
                0x0000000040179345                c2i_ASN1_BIT_STRING
                0x00000000401794c1                ASN1_BIT_STRING_set_bit
                0x0000000040179641                ASN1_BIT_STRING_get_bit
                0x0000000040179694                ASN1_BIT_STRING_check
                0x00000000401796fa                d2i_ASN1_type_bytes
                0x000000004017989d                i2d_ASN1_bytes
                0x000000004017994d                d2i_ASN1_bytes
                0x0000000040179d19                ASN1_dup
                0x0000000040179dbf                ASN1_item_dup
                0x0000000040179e4c                ASN1_INTEGER_dup
                0x0000000040179e5b                ASN1_INTEGER_cmp
                0x0000000040179e9e                i2c_ASN1_INTEGER
                0x000000004017a027                c2i_ASN1_INTEGER
                0x000000004017a266                d2i_ASN1_UINTEGER
                0x000000004017a462                ASN1_INTEGER_set
                0x000000004017a595                ASN1_INTEGER_get
                0x000000004017a623                BN_to_ASN1_INTEGER
                0x000000004017a72b                ASN1_INTEGER_to_BN
                0x000000004017a790                i2d_ASN1_OBJECT
                0x000000004017a829                a2d_ASN1_OBJECT
                0x000000004017acf8                i2t_ASN1_OBJECT
                0x000000004017ad0c                i2a_ASN1_OBJECT
                0x000000004017adf1                ASN1_OBJECT_new
                0x000000004017ae70                ASN1_OBJECT_free
                0x000000004017aeef                c2i_ASN1_OBJECT
                0x000000004017b07c                d2i_ASN1_OBJECT
                0x000000004017b10c                ASN1_OBJECT_create
                0x000000004017b13c                ASN1_TYPE_get
                0x000000004017b156                ASN1_TYPE_set
                0x000000004017b1b0                ASN1_TYPE_set1
                0x000000004017b232                ASN1_TYPE_cmp
                0x000000004017b284                AES_cfb128_encrypt
                0x000000004017b2a0                AES_cfb1_encrypt
                0x000000004017b2bc                AES_cfb8_encrypt
                0x000000004017b2d8                AES_ecb_encrypt
                0x000000004017b2f3                AES_ofb128_encrypt
                0x000000004017b30f                ERR_load_ASN1_strings
                0x000000004017b3ed                ASN1_check_infinite_end
                0x000000004017b3fc                ASN1_const_check_infinite_end
                0x000000004017b40b                ASN1_get_object
                0x000000004017b5c5                ASN1_put_object
                0x000000004017b6cc                ASN1_put_eoc
                0x000000004017b6e7                ASN1_object_size
                0x000000004017b719                asn1_Finish
                0x000000004017b728                asn1_const_Finish
                0x000000004017b737                asn1_GetSequence
                0x000000004017b7da                ASN1_STRING_set
                0x000000004017b8be                ASN1_STRING_copy
                0x000000004017b902                ASN1_STRING_set0
                0x000000004017b93c                ASN1_STRING_type_new
                0x000000004017b9a9                ASN1_STRING_new
                0x000000004017b9bd                ASN1_STRING_free
                0x000000004017b9f7                ASN1_STRING_dup
                0x000000004017ba42                ASN1_STRING_cmp
                0x000000004017ba7a                asn1_add_error
                0x000000004017bae5                ASN1_STRING_length
                0x000000004017baec                ASN1_STRING_length_set
                0x000000004017baf3                ASN1_STRING_type
                0x000000004017bafb                ASN1_STRING_data
                0x000000004017bb04                ASN1_seq_unpack
                0x000000004017bb6d                ASN1_seq_pack
                0x000000004017bc5b                ASN1_unpack_string
                0x000000004017bcb3                ASN1_pack_string
                0x000000004017bdc9                ASN1_item_pack
                0x000000004017bed0                ASN1_item_unpack
                0x000000004017bf2b                BF_cfb64_encrypt
                0x000000004017c11a                BF_options
                0x000000004017c124                BF_ecb_encrypt
                0x000000004017c1d6                BF_encrypt
                0x000000004017c643                BF_decrypt
                0x000000004017cab0                BF_cbc_encrypt
                0x000000004017d071                BF_ofb64_encrypt
                0x000000004017d208                BF_set_key
                0x000000004017d30c                ERR_load_BIO_strings
                0x000000004017d347                BIO_set
                0x000000004017d419                BIO_new
                0x000000004017d48a                BIO_free
                0x000000004017d547                BIO_vfree
                0x000000004017d556                BIO_clear_flags
                0x000000004017d560                BIO_test_flags
                0x000000004017d56a                BIO_set_flags
                0x000000004017d572                BIO_get_callback
                0x000000004017d57b                BIO_set_callback
                0x000000004017d584                BIO_set_callback_arg
                0x000000004017d58d                BIO_get_callback_arg
                0x000000004017d596                BIO_method_name
                0x000000004017d5a2                BIO_method_type
                0x000000004017d5ac                BIO_read
                0x000000004017d696                BIO_write
                0x000000004017d786                BIO_puts
                0x000000004017d873                BIO_gets
                0x000000004017d962                BIO_indent
                0x000000004017d9ab                BIO_ctrl
                0x000000004017da78                BIO_int_ctrl
                0x000000004017da92                BIO_ptr_ctrl
                0x000000004017dabe                BIO_callback_ctrl
                0x000000004017db8c                BIO_ctrl_pending
                0x000000004017dbaa                BIO_ctrl_wpending
                0x000000004017dbc8                BIO_push
                0x000000004017dc18                BIO_pop
                0x000000004017dc80                BIO_get_retry_BIO
                0x000000004017dcac                BIO_get_retry_reason
                0x000000004017dcb4                BIO_find_type
                0x000000004017dce7                BIO_next
                0x000000004017dcf9                BIO_free_all
                0x000000004017dd28                BIO_dup_chain
                0x000000004017de24                BIO_copy_next_retry
                0x000000004017de3c                BIO_get_ex_new_index
                0x000000004017de5f                BIO_set_ex_data
                0x000000004017de72                BIO_get_ex_data
                0x000000004017de85                BIO_number_read
                0x000000004017de98                BIO_number_written
                0x000000004017deab                ERR_load_BN_strings
                0x000000004017e03f                BN_set_params
                0x000000004017e094                BN_get_params
                0x000000004017e0cb                BN_value_one
                0x000000004017e0d5                BN_options
                0x000000004017e121                BN_num_bits_word
                0x000000004017e17b                BN_num_bits
                0x000000004017e1b0                BN_clear_free
                0x000000004017e212                BN_free
                0x000000004017e261                BN_init
                0x000000004017e27a                BN_new
                0x000000004017e2f0                bn_expand2
                0x000000004017e342                BN_copy
                0x000000004017e41d                BN_dup
                0x000000004017e46a                bn_dup_expand
                0x000000004017e4d8                BN_swap
                0x000000004017e540                BN_clear
                0x000000004017e580                BN_get_word
                0x000000004017e5a0                BN_set_word
                0x000000004017e5f0                BN_bin2bn
                0x000000004017e714                BN_bn2bin
                0x000000004017e77c                BN_ucmp
                0x000000004017e7be                BN_cmp
                0x000000004017e84e                BN_set_bit
                0x000000004017e8fb                BN_clear_bit
                0x000000004017e958                BN_is_bit_set
                0x000000004017e984                BN_mask_bits
                0x000000004017e9f9                BN_set_negative
                0x000000004017ea11                bn_cmp_words
                0x000000004017ea64                bn_cmp_part_words
                0x000000004017eadf                BN_bn2hex
                0x000000004017ebd8                BN_bn2dec
                0x000000004017edf7                BN_hex2bn
                0x000000004017eff4                BN_dec2bn
                0x000000004017f1ab                BN_asc2bn
                0x000000004017f216                BN_print
                0x000000004017f314                BN_lshift1
                0x000000004017f3cb                BN_rshift1
                0x000000004017f48d                BN_lshift
                0x000000004017f5c8                BN_rshift
                0x000000004017f735                BN_mod_word
                0x000000004017f793                BN_div_word
                0x000000004017f897                BN_sub_word
                0x000000004017f995                BN_add_word
                0x000000004017fa88                BN_mul_word
                0x000000004017fb08                ERR_load_BUF_strings
                0x000000004017fb43                BUF_MEM_new
                0x000000004017fbad                BUF_MEM_free
                0x000000004017fbf0                BUF_MEM_grow
                0x000000004017fd2e                BUF_MEM_grow_clean
                0x000000004017fe87                BUF_memdup
                0x000000004017ff02                BUF_strlcpy
                0x000000004017ff65                BUF_strndup
                0x000000004017ffde                BUF_strdup
                0x000000004018000d                BUF_strlcat
                0x0000000040180057                BUF_reverse
                0x00000000401800b5                CAST_cfb64_encrypt
                0x00000000401802a4                CAST_ecb_encrypt
                0x0000000040180356                CAST_encrypt
                0x00000000401807af                CAST_decrypt
                0x0000000040180c47                CAST_cbc_encrypt
                0x0000000040181208                CAST_ofb64_encrypt
                0x000000004018139f                CAST_set_key
                0x0000000040181e1e                DES_ede3_cfb64_encrypt
                0x0000000040182042                DES_ede3_cfb_encrypt
                0x000000004018281a                DES_cfb64_encrypt
                0x0000000040182a2f                DES_cfb_encrypt
                0x000000004018308f                ERR_load_COMP_strings
                0x00000000401830ca                ERR_load_CONF_strings
                0x0000000040183105                ERR_load_CRYPTO_strings
                0x0000000040183140                CRYPTO_get_new_lockid
                0x00000000401831ee                CRYPTO_num_locks
                0x00000000401831f8                CRYPTO_get_dynlock_create_callback
                0x0000000040183204                CRYPTO_get_dynlock_lock_callback
                0x0000000040183210                CRYPTO_get_dynlock_destroy_callback
                0x000000004018321c                CRYPTO_set_dynlock_create_callback
                0x0000000040183228                CRYPTO_set_dynlock_lock_callback
                0x0000000040183234                CRYPTO_set_dynlock_destroy_callback
                0x0000000040183240                CRYPTO_get_locking_callback
                0x000000004018324c                CRYPTO_get_add_lock_callback
                0x0000000040183258                CRYPTO_set_locking_callback
                0x0000000040183264                CRYPTO_set_add_lock_callback
                0x0000000040183270                CRYPTO_THREADID_set_numeric
                0x0000000040183299                CRYPTO_THREADID_set_pointer
                0x00000000401832c5                CRYPTO_THREADID_set_callback
                0x00000000401832e7                CRYPTO_THREADID_get_callback
                0x00000000401832f3                CRYPTO_THREADID_current
                0x000000004018333e                CRYPTO_THREADID_cmp
                0x0000000040183352                CRYPTO_THREADID_cpy
                0x0000000040183366                CRYPTO_THREADID_hash
                0x000000004018336f                CRYPTO_get_id_callback
                0x000000004018337b                CRYPTO_set_id_callback
                0x0000000040183387                CRYPTO_thread_id
                0x00000000401833a5                CRYPTO_get_lock_name
                0x00000000401833fd                OPENSSL_ia32cap_loc
                0x0000000040183407                OPENSSL_cpuid_setup
                0x000000004018340c                OPENSSL_showfatal
                0x000000004018345b                OPENSSL_isservice
                0x0000000040183465                OpenSSLDie
                0x000000004018348b                CRYPTO_lock
                0x0000000040183516                CRYPTO_get_new_dynlockid
                0x0000000040183748                CRYPTO_destroy_dynlockid
                0x0000000040183840                CRYPTO_get_dynlock_value
                0x00000000401838e2                CRYPTO_add_lock
                0x0000000040183954                OPENSSL_stderr
                0x000000004018395e                CRYPTO_memcmp
                0x0000000040183991                DES_encrypt1
                0x0000000040183d92                DES_encrypt2
                0x000000004018409a                DES_encrypt3
                0x00000000401841fd                DES_decrypt3
                0x0000000040184363                DES_ncbc_encrypt
                0x0000000040184988                DES_ede3_cbc_encrypt
                0x0000000040184fcc                ERR_load_DH_strings
                0x0000000040185007                ERR_load_DSA_strings
                0x0000000040185042                DSA_do_sign
                0x0000000040185053                DSA_sign
                0x00000000401850cf                DSA_sign_setup
                0x00000000401850e0                DSA_do_verify
                0x00000000401850f1                DSA_verify
                0x000000004018516f                ERR_load_DSO_strings
                0x00000000401851aa                ERR_load_EC_strings
                0x00000000401851e5                ERR_load_ECDH_strings
                0x0000000040185220                ERR_load_ECDSA_strings
                0x000000004018525b                ECDSA_do_sign_ex
                0x00000000401852b1                ECDSA_do_sign
                0x00000000401852cd                ECDSA_sign_ex
                0x0000000040185351                ECDSA_sign
                0x000000004018536a                ECDSA_sign_setup
                0x00000000401853b2                ECDSA_do_verify
                0x00000000401853fd                ECDSA_verify
                0x00000000401854b2                EVP_PBE_alg_add_type
                0x0000000040185568                EVP_PBE_alg_add
                0x00000000401855c6                EVP_PBE_find
                0x0000000040185679                EVP_PBE_CipherInit
                0x0000000040185870                EVP_PBE_cleanup
                0x0000000040185cac                CRYPTO_get_ex_data_implementation
                0x0000000040185cd4                CRYPTO_set_ex_data_implementation
                0x0000000040185d3b                CRYPTO_ex_data_new_class
                0x0000000040185d5f                CRYPTO_cleanup_all_ex_data
                0x0000000040185d84                CRYPTO_get_ex_new_index
                0x0000000040185de7                CRYPTO_new_ex_data
                0x0000000040185e2e                CRYPTO_dup_ex_data
                0x0000000040185e75                CRYPTO_free_ex_data
                0x0000000040185ebc                CRYPTO_set_ex_data
                0x0000000040185f88                CRYPTO_get_ex_data
                0x000000004018647c                HMAC_Init_ex
                0x00000000401866af                HMAC_Update
                0x00000000401866c2                HMAC_Final
                0x000000004018673e                HMAC_CTX_init
                0x000000004018676f                HMAC_Init
                0x00000000401867bb                HMAC_CTX_copy
                0x000000004018683b                HMAC_CTX_cleanup
                0x000000004018687e                HMAC
                0x0000000040186944                HMAC_CTX_set_flags
                0x0000000040187367                RAND_SSLeay
                0x0000000040187371                PKCS12_PBE_add
                0x0000000040187376                PKCS12_PBE_keyivgen
                0x0000000040187593                PKCS12_key_gen_uni
                0x0000000040187a90                PKCS12_key_gen_asc
                0x0000000040187b5e                OPENSSL_asc2uni
                0x0000000040187bf0                OPENSSL_uni2asc
                0x0000000040187c71                i2d_PKCS12_bio
                0x0000000040187c8b                d2i_PKCS12_bio
                0x0000000040187ca5                PKCS12_x5092certbag
                0x0000000040187cc3                PKCS12_x509crl2certbag
                0x0000000040187ce1                PKCS12_certbag2x509
                0x0000000040187d3b                PKCS12_certbag2x509crl
                0x0000000040187d95                PKCS5_PBE_add
                0x0000000040187d9a                PKCS5_PBE_keyivgen
                0x00000000401880a9                d2i_PBEPARAM
                0x00000000401880bd                i2d_PBEPARAM
                0x00000000401880d1                PBEPARAM_new
                0x00000000401880e5                PBEPARAM_free
                0x00000000401880f9                PKCS5_pbe_set0_algor
                0x00000000401882af                PKCS5_pbe_set
                0x0000000040188337                RSA_set_default_method
                0x0000000040188343                RSA_get_default_method
                0x0000000040188372                RSA_get_method
                0x000000004018837b                RSA_set_method
                0x00000000401883b8                RSA_new_method
                0x000000004018850b                RSA_new
                0x000000004018851f                RSA_free
                0x0000000040188633                RSA_up_ref
                0x0000000040188664                RSA_get_ex_new_index
                0x0000000040188687                RSA_set_ex_data
                0x000000004018869a                RSA_get_ex_data
                0x00000000401886ad                RSA_size
                0x00000000401886cc                RSA_public_encrypt
                0x00000000401886dd                RSA_private_encrypt
                0x00000000401886ee                RSA_private_decrypt
                0x00000000401886ff                RSA_public_decrypt
                0x0000000040188710                RSA_flags
                0x0000000040188726                RSA_blinding_off
                0x0000000040188763                RSA_setup_blinding
                0x0000000040188a05                RSA_blinding_on
                0x0000000040188a58                RSA_memory_lock
                0x00000000401891db                d2i_X509_REVOKED
                0x00000000401891ef                i2d_X509_REVOKED
                0x0000000040189203                X509_REVOKED_new
                0x0000000040189217                X509_REVOKED_free
                0x000000004018922b                d2i_X509_CRL_INFO
                0x000000004018923f                i2d_X509_CRL_INFO
                0x0000000040189253                X509_CRL_INFO_new
                0x0000000040189267                X509_CRL_INFO_free
                0x000000004018927b                d2i_X509_CRL
                0x000000004018928f                i2d_X509_CRL
                0x00000000401892a3                X509_CRL_new
                0x00000000401892b7                X509_CRL_free
                0x00000000401892cb                X509_CRL_dup
                0x00000000401892e2                X509_CRL_add0_revoked
                0x0000000040189359                X509_CRL_verify
                0x0000000040189378                X509_CRL_get0_by_serial
                0x000000004018939d                X509_CRL_get0_by_cert
                0x0000000040189400                X509_CRL_set_default_method
                0x0000000040189418                X509_CRL_METHOD_new
                0x000000004018946b                X509_CRL_METHOD_free
                0x0000000040189480                X509_CRL_set_meth_data
                0x0000000040189489                X509_CRL_get_meth_data
                0x0000000040189492                d2i_X509_EXTENSION
                0x00000000401894a6                i2d_X509_EXTENSION
                0x00000000401894ba                X509_EXTENSION_new
                0x00000000401894ce                X509_EXTENSION_free
                0x00000000401894e2                d2i_X509_EXTENSIONS
                0x00000000401894f6                i2d_X509_EXTENSIONS
                0x000000004018950a                X509_EXTENSION_dup
                0x0000000040189521                X509_NAME_ENTRY_free
                0x000000004018970e                d2i_X509_NAME_ENTRY
                0x0000000040189722                i2d_X509_NAME_ENTRY
                0x0000000040189736                X509_NAME_ENTRY_new
                0x0000000040189c20                X509_NAME_ENTRY_dup
                0x0000000040189c37                d2i_X509_NAME
                0x0000000040189c4b                i2d_X509_NAME
                0x0000000040189c5f                X509_NAME_new
                0x0000000040189c73                X509_NAME_free
                0x0000000040189e14                X509_NAME_dup
                0x0000000040189e2b                X509_NAME_set
                0x0000000040189fa5                d2i_X509_CINF
                0x0000000040189fb9                i2d_X509_CINF
                0x0000000040189fcd                X509_CINF_new
                0x0000000040189fe1                X509_CINF_free
                0x0000000040189ff5                d2i_X509
                0x000000004018a009                i2d_X509
                0x000000004018a01d                X509_new
                0x000000004018a031                X509_free
                0x000000004018a045                X509_dup
                0x000000004018a05c                X509_get_ex_new_index
                0x000000004018a07f                X509_set_ex_data
                0x000000004018a092                X509_get_ex_data
                0x000000004018a0a5                d2i_X509_AUX
                0x000000004018a105                i2d_X509_AUX
                0x000000004018a149                d2i_X509_CERT_AUX
                0x000000004018a15d                i2d_X509_CERT_AUX
                0x000000004018a171                X509_CERT_AUX_new
                0x000000004018a1c5                X509_CERT_AUX_free
                0x000000004018a1d9                X509_alias_set1
                0x000000004018a28a                X509_keyid_set1
                0x000000004018a33b                X509_alias_get0
                0x000000004018a36d                X509_keyid_get0
                0x000000004018a39f                X509_add1_trust_object
                0x000000004018a405                X509_add1_reject_object
                0x000000004018a46e                X509_trust_clear
                0x000000004018a4b1                X509_reject_clear
                0x000000004018a4f6                d2i_X509_CERT_PAIR
                0x000000004018a50a                i2d_X509_CERT_PAIR
                0x000000004018a51e                X509_CERT_PAIR_new
                0x000000004018a532                X509_CERT_PAIR_free
                0x000000004018a66c                CRYPTO_cfb128_encrypt
                0x000000004018a8f6                CRYPTO_cfb128_1_encrypt
                0x000000004018a9b8                CRYPTO_cfb128_8_encrypt
                0x000000004018aa2a                CRYPTO_ofb128_encrypt
                0x000000004018aeaf                ASN1_d2i_bio
                0x000000004018af18                ASN1_item_d2i_bio
                0x000000004018af8a                ASN1_ENUMERATED_set
                0x000000004018b0bd                ASN1_ENUMERATED_get
                0x000000004018b148                BN_to_ASN1_ENUMERATED
                0x000000004018b23b                ASN1_ENUMERATED_to_BN
                0x000000004018b2a0                ASN1_i2d_bio
                0x000000004018b362                ASN1_item_i2d_bio
                0x000000004018b43d                i2d_ASN1_SET
                0x000000004018b6c5                d2i_ASN1_SET
                0x000000004018c083                X509_NAME_print_ex
                0x000000004018c5bc                ASN1_STRING_print_ex
                0x000000004018c5d6                ASN1_STRING_to_UTF8
                0x000000004018c657                d2i_ASN1_TIME
                0x000000004018c66b                i2d_ASN1_TIME
                0x000000004018c67f                ASN1_TIME_new
                0x000000004018c693                ASN1_TIME_free
                0x000000004018c6a7                ASN1_TIME_adj
                0x000000004018c764                ASN1_TIME_set
                0x000000004018c77d                ASN1_TIME_check
                0x000000004018c7a7                ASN1_TIME_to_generalizedtime
                0x000000004018c8a0                ASN1_TIME_set_string
                0x000000004018c91d                ASN1_UTCTIME_check
                0x000000004018cade                ASN1_UTCTIME_set_string
                0x000000004018cb50                ASN1_UTCTIME_adj
                0x000000004018ccd6                ASN1_UTCTIME_set
                0x000000004018ccef                ASN1_UTCTIME_cmp_time_t
                0x000000004018ce9a                UTF8_getc
                0x000000004018d2b4                UTF8_putc
                0x000000004018d509                ASN1_verify
                0x000000004018d675                ASN1_item_verify
                0x000000004018d8aa                ASN1_tag2str
                0x000000004018e341                ASN1_parse
                0x000000004018e36c                ASN1_parse_dump
                0x000000004018e3b1                BIO_dump_indent_cb
                0x000000004018e7d7                BIO_dump_cb
                0x000000004018e7ec                BIO_dump
                0x000000004018e808                BIO_dump_indent
                0x000000004018e827                BN_uadd
                0x000000004018e926                BN_usub
                0x000000004018eaf7                BN_add
                0x000000004018eb87                BN_sub
                0x000000004018ec5e                bn_mul_add_words
                0x000000004018ee67                bn_mul_words
                0x000000004018f03e                bn_sqr_words
                0x000000004018f171                bn_div_words
                0x000000004018f29a                bn_add_words
                0x000000004018f356                bn_sub_words
                0x000000004018f464                bn_mul_comba8
                0x0000000040190957                bn_mul_comba4
                0x0000000040190e96                bn_sqr_comba8
                0x0000000040191cf5                bn_sqr_comba4
                0x000000004019208e                BN_BLINDING_free
                0x00000000401920e9                BN_BLINDING_new
                0x00000000401921c3                BN_BLINDING_invert_ex
                0x0000000040192224                BN_BLINDING_invert
                0x000000004019223e                BN_BLINDING_get_thread_id
                0x0000000040192247                BN_BLINDING_set_thread_id
                0x0000000040192250                BN_BLINDING_thread_id
                0x0000000040192259                BN_BLINDING_get_flags
                0x0000000040192262                BN_BLINDING_set_flags
                0x000000004019226b                BN_BLINDING_create_param
                0x0000000040192410                BN_BLINDING_update
                0x0000000040192513                BN_BLINDING_convert_ex
                0x00000000401925dc                BN_BLINDING_convert
                0x00000000401925f6                BN_CTX_init
                0x000000004019267c                BN_CTX_new
                0x000000004019271f                BN_CTX_free
                0x00000000401927b0                BN_CTX_start
                0x000000004019288e                BN_CTX_end
                0x0000000040192903                BN_CTX_get
                0x0000000040192b32                BN_exp
                0x0000000040192d01                BN_mod_exp_recp
                0x00000000401931f1                BN_mod_exp_mont_consttime
                0x00000000401937b0                BN_mod_exp_mont
                0x0000000040193dbe                BN_mod_exp_mont_word
                0x000000004019420b                BN_mod_exp
                0x0000000040194259                BN_mod_exp_simple
                0x000000004019474a                BN_gcd
                0x0000000040194961                BN_mod_inverse
                0x0000000040195438                BN_nnmod
                0x0000000040195492                BN_mod_add
                0x00000000401954d3                BN_mod_add_quick
                0x0000000040195518                BN_mod_sub
                0x0000000040195559                BN_mod_sub_quick
                0x0000000040195593                BN_mod_mul
                0x0000000040195642                BN_mod_sqr
                0x000000004019568b                BN_mod_lshift1
                0x00000000401956cc                BN_mod_lshift1_quick
                0x0000000040195711                BN_mod_lshift_quick
                0x00000000401957fd                BN_mod_lshift
                0x0000000040195be5                BN_mod_mul_montgomery
                0x0000000040195c91                BN_from_montgomery
                0x0000000040195d0d                BN_MONT_CTX_init
                0x0000000040195d59                BN_MONT_CTX_new
                0x0000000040195d9a                BN_MONT_CTX_free
                0x0000000040195de1                BN_MONT_CTX_set
                0x0000000040195fd1                BN_MONT_CTX_copy
                0x0000000040196041                BN_MONT_CTX_set_locked
                0x0000000040196126                bn_sub_part_words
                0x0000000040196356                bn_add_part_words
                0x0000000040196702                bn_mul_normal
                0x0000000040196835                bn_mul_recursive
                0x0000000040196c5c                bn_mul_high
                0x00000000401970f0                bn_mul_part_recursive
                0x0000000040197616                BN_mul
                0x0000000040197910                bn_mul_low_normal
                0x00000000401979ed                bn_mul_low_recursive
                0x0000000040197cf9                BN_rand
                0x0000000040197d17                BN_pseudo_rand
                0x0000000040197f04                BN_bntest_rand
                0x0000000040197f22                BN_rand_range
                0x0000000040197f3c                BN_pseudo_rand_range
                0x0000000040197f56                BN_RECP_CTX_init
                0x0000000040197f88                BN_RECP_CTX_new
                0x0000000040197fc9                BN_RECP_CTX_free
                0x0000000040198003                BN_RECP_CTX_set
                0x0000000040198050                BN_reciprocal
                0x00000000401980e3                BN_div_recp
                0x000000004019838d                BN_mod_mul_reciprocal
                0x0000000040198444                bn_sqr_normal
                0x0000000040198538                bn_sqr_recursive
                0x00000000401986e6                BN_sqr
                0x00000000401988fe                EVP_MD_CTX_init
                0x0000000040198917                EVP_MD_CTX_create
                0x0000000040198951                EVP_DigestInit_ex
                0x0000000040198a55                EVP_DigestInit
                0x0000000040198a80                EVP_DigestUpdate
                0x0000000040198a8d                EVP_DigestFinal_ex
                0x0000000040198b24                EVP_MD_CTX_cleanup
                0x0000000040198bc6                EVP_DigestFinal
                0x0000000040198bec                EVP_MD_CTX_copy_ex
                0x0000000040198d4b                EVP_MD_CTX_copy
                0x0000000040198d71                EVP_Digest
                0x0000000040198e0e                EVP_MD_CTX_destroy
                0x0000000040198ef7                d2i_DSA_SIG
                0x0000000040198f0b                i2d_DSA_SIG
                0x0000000040198f1f                DSA_SIG_new
                0x0000000040198f33                DSA_SIG_free
                0x0000000040198f47                d2i_DSAPrivateKey
                0x0000000040198f5b                i2d_DSAPrivateKey
                0x0000000040198f6f                d2i_DSAparams
                0x0000000040198f83                i2d_DSAparams
                0x0000000040198f97                d2i_DSAPublicKey
                0x0000000040198fab                i2d_DSAPublicKey
                0x0000000040198fbf                DSAparams_dup
                0x0000000040198fd6                DSA_set_default_method
                0x0000000040198fe2                DSA_get_default_method
                0x0000000040199011                DSA_set_method
                0x000000004019904e                DSA_new_method
                0x0000000040199156                DSA_new
                0x000000004019916a                DSA_free
                0x000000004019923d                DSA_up_ref
                0x000000004019926e                DSA_size
                0x00000000401992c7                DSA_get_ex_new_index
                0x00000000401992ea                DSA_set_ex_data
                0x00000000401992fd                DSA_get_ex_data
                0x0000000040199310                DSA_dup_DH
                0x0000000040199d3a                DSA_OpenSSL
                0x0000000040199d44                d2i_ECDSA_SIG
                0x0000000040199d58                i2d_ECDSA_SIG
                0x0000000040199d6c                ECDSA_SIG_new
                0x0000000040199d80                ECDSA_SIG_free
                0x0000000040199dd0                ECDSA_set_default_method
                0x0000000040199ddc                ECDSA_get_default_method
                0x0000000040199ea2                ecdsa_check
                0x0000000040199f12                ECDSA_set_method
                0x0000000040199f42                ECDSA_size
                0x0000000040199ffc                ECDSA_get_ex_new_index
                0x000000004019a01f                ECDSA_set_ex_data
                0x000000004019a055                ECDSA_get_ex_data
                0x000000004019aebf                ECDSA_OpenSSL
                0x000000004019aec9                OPENSSL_gmtime
                0x000000004019aed3                OPENSSL_gmtime_adj
                0x000000004019b18f                PKCS12_item_pack_safebag
                0x000000004019b275                PKCS12_MAKE_KEYBAG
                0x000000004019b2ca                PKCS12_MAKE_SHKEYBAG
                0x000000004019b3ac                PKCS12_pack_p7data
                0x000000004019b481                PKCS12_unpack_p7data
                0x000000004019b4d9                PKCS12_pack_p7encdata
                0x000000004019b681                PKCS12_unpack_p7encdata
                0x000000004019b6e1                PKCS12_decrypt_skey
                0x000000004019b6f4                PKCS12_pack_authsafes
                0x000000004019b71f                PKCS12_unpack_authsafes
                0x000000004019b77f                d2i_PKCS12
                0x000000004019b793                i2d_PKCS12
                0x000000004019b7a7                PKCS12_new
                0x000000004019b7bb                PKCS12_free
                0x000000004019b7cf                d2i_PKCS12_MAC_DATA
                0x000000004019b7e3                i2d_PKCS12_MAC_DATA
                0x000000004019b7f7                PKCS12_MAC_DATA_new
                0x000000004019b80b                PKCS12_MAC_DATA_free
                0x000000004019b81f                d2i_PKCS12_BAGS
                0x000000004019b833                i2d_PKCS12_BAGS
                0x000000004019b847                PKCS12_BAGS_new
                0x000000004019b85b                PKCS12_BAGS_free
                0x000000004019b86f                d2i_PKCS12_SAFEBAG
                0x000000004019b883                i2d_PKCS12_SAFEBAG
                0x000000004019b897                PKCS12_SAFEBAG_new
                0x000000004019b8ab                PKCS12_SAFEBAG_free
                0x000000004019b8bf                PKCS12_pbe_crypt
                0x000000004019ba3b                PKCS12_item_decrypt_d2i
                0x000000004019bb14                PKCS12_item_i2d_encrypt
                0x000000004019bc45                PKCS8_decrypt
                0x000000004019bc6b                PKCS8_encrypt
                0x000000004019bdd5                d2i_PKCS8_PRIV_KEY_INFO
                0x000000004019bde9                i2d_PKCS8_PRIV_KEY_INFO
                0x000000004019bdfd                PKCS8_PRIV_KEY_INFO_new
                0x000000004019be11                PKCS8_PRIV_KEY_INFO_free
                0x000000004019be25                PKCS8_pkey_set0
                0x000000004019bef6                PKCS8_pkey_get0
                0x000000004019c0d5                EVP_PKEY_bits
                0x000000004019c0fe                EVP_PKEY_size
                0x000000004019c127                EVP_PKEY_save_parameters
                0x000000004019c159                EVP_PKEY_missing_parameters
                0x000000004019c17d                EVP_PKEY_copy_parameters
                0x000000004019c20e                EVP_PKEY_cmp_parameters
                0x000000004019c247                EVP_PKEY_cmp
                0x000000004019c2a7                EVP_PKEY_new
                0x000000004019c335                EVP_PKEY_set_type
                0x000000004019c34e                EVP_PKEY_set_type_str
                0x000000004019c367                EVP_PKEY_assign
                0x000000004019c393                EVP_PKEY_get0
                0x000000004019c39c                EVP_PKEY_set1_RSA
                0x000000004019c3ce                EVP_PKEY_get1_RSA
                0x000000004019c41c                EVP_PKEY_set1_DSA
                0x000000004019c44e                EVP_PKEY_get1_DSA
                0x000000004019c49c                EVP_PKEY_set1_EC_KEY
                0x000000004019c4ce                EVP_PKEY_get1_EC_KEY
                0x000000004019c51f                EVP_PKEY_set1_DH
                0x000000004019c551                EVP_PKEY_get1_DH
                0x000000004019c59f                EVP_PKEY_type
                0x000000004019c5c6                EVP_PKEY_id
                0x000000004019c5cd                EVP_PKEY_base_id
                0x000000004019c5de                EVP_PKEY_free
                0x000000004019c641                EVP_PKEY_print_public
                0x000000004019c66b                EVP_PKEY_print_private
                0x000000004019c695                EVP_PKEY_print_params
                0x000000004019c6c2                EVP_PKEY_get_default_digest_nid
                0x000000004019c6fc                EVP_VerifyFinal
                0x000000004019c88f                policy_cache_free
                0x000000004019c8d3                policy_cache_set
                0x000000004019cc4a                policy_cache_find_data
                0x000000004019cc88                policy_data_free
                0x000000004019ccd2                policy_data_new
                0x000000004019cdc5                policy_cache_set_mapping
                0x000000004019cfe2                d2i_PKCS7
                0x000000004019cff6                i2d_PKCS7
                0x000000004019d00a                PKCS7_new
                0x000000004019d01e                PKCS7_free
                0x000000004019d032                i2d_PKCS7_NDEF
                0x000000004019d046                PKCS7_dup
                0x000000004019d05d                d2i_PKCS7_SIGNED
                0x000000004019d071                i2d_PKCS7_SIGNED
                0x000000004019d085                PKCS7_SIGNED_new
                0x000000004019d099                PKCS7_SIGNED_free
                0x000000004019d0ad                d2i_PKCS7_SIGNER_INFO
                0x000000004019d0c1                i2d_PKCS7_SIGNER_INFO
                0x000000004019d0d5                PKCS7_SIGNER_INFO_new
                0x000000004019d0e9                PKCS7_SIGNER_INFO_free
                0x000000004019d0fd                d2i_PKCS7_ISSUER_AND_SERIAL
                0x000000004019d111                i2d_PKCS7_ISSUER_AND_SERIAL
                0x000000004019d125                PKCS7_ISSUER_AND_SERIAL_new
                0x000000004019d139                PKCS7_ISSUER_AND_SERIAL_free
                0x000000004019d14d                d2i_PKCS7_ENVELOPE
                0x000000004019d161                i2d_PKCS7_ENVELOPE
                0x000000004019d175                PKCS7_ENVELOPE_new
                0x000000004019d189                PKCS7_ENVELOPE_free
                0x000000004019d19d                d2i_PKCS7_RECIP_INFO
                0x000000004019d1b1                i2d_PKCS7_RECIP_INFO
                0x000000004019d1c5                PKCS7_RECIP_INFO_new
                0x000000004019d1d9                PKCS7_RECIP_INFO_free
                0x000000004019d1ed                d2i_PKCS7_ENC_CONTENT
                0x000000004019d201                i2d_PKCS7_ENC_CONTENT
                0x000000004019d215                PKCS7_ENC_CONTENT_new
                0x000000004019d229                PKCS7_ENC_CONTENT_free
                0x000000004019d23d                d2i_PKCS7_SIGN_ENVELOPE
                0x000000004019d251                i2d_PKCS7_SIGN_ENVELOPE
                0x000000004019d265                PKCS7_SIGN_ENVELOPE_new
                0x000000004019d279                PKCS7_SIGN_ENVELOPE_free
                0x000000004019d28d                d2i_PKCS7_ENCRYPT
                0x000000004019d2a1                i2d_PKCS7_ENCRYPT
                0x000000004019d2b5                PKCS7_ENCRYPT_new
                0x000000004019d2c9                PKCS7_ENCRYPT_free
                0x000000004019d2dd                d2i_PKCS7_DIGEST
                0x000000004019d2f1                i2d_PKCS7_DIGEST
                0x000000004019d305                PKCS7_DIGEST_new
                0x000000004019d319                PKCS7_DIGEST_free
                0x000000004019d32d                PKCS7_print_ctx
                0x000000004019d8a5                PKCS7_dataInit
                0x000000004019df9c                PKCS7_dataDecode
                0x000000004019e6e8                PKCS7_SIGNER_INFO_sign
                0x000000004019e8b4                PKCS7_get_issuer_and_serial
                0x000000004019e92f                PKCS7_get_signed_attribute
                0x000000004019e942                PKCS7_dataFinal
                0x000000004019ee8c                PKCS7_get_attribute
                0x000000004019ee9f                PKCS7_digest_from_attributes
                0x000000004019eebc                PKCS7_signatureVerify
                0x000000004019f1da                PKCS7_dataVerify
                0x000000004019f361                PKCS7_set_signed_attributes
                0x000000004019f3f5                PKCS7_set_attributes
                0x000000004019f489                PKCS7_add_signed_attribute
                0x000000004019f49c                PKCS7_add_attribute
                0x000000004019f4af                PKCS7_ctrl
                0x000000004019f5e1                PKCS7_set_content
                0x000000004019f670                PKCS7_set_type
                0x000000004019f868                PKCS7_content_new
                0x000000004019f8ce                PKCS7_set0_type_other
                0x000000004019f8f8                PKCS7_add_signer
                0x000000004019fa4c                PKCS7_add_certificate
                0x000000004019fb31                PKCS7_add_crl
                0x000000004019fc16                PKCS7_SIGNER_INFO_set
                0x000000004019fd6a                PKCS7_add_signature
                0x000000004019fe30                PKCS7_set_digest
                0x000000004019fef3                PKCS7_get_signer_info
                0x000000004019ff3e                PKCS7_SIGNER_INFO_get0_algs
                0x000000004019ff67                PKCS7_RECIP_INFO_get0_alg
                0x000000004019ff78                PKCS7_add_recipient_info
                0x000000004019ffe9                PKCS7_RECIP_INFO_set
                0x00000000401a0183                PKCS7_add_recipient
                0x00000000401a01e2                PKCS7_cert_from_signer_info
                0x00000000401a0228                PKCS7_set_cipher
                0x00000000401a02cf                PKCS7_stream
                0x00000000401a1d18                RSA_PKCS1_SSLeay
                0x00000000401a1d22                RSA_padding_add_none
                0x00000000401a1d8d                RSA_padding_check_none
                0x00000000401a1e03                PKCS1_MGF1
                0x00000000401a1fe3                RSA_padding_check_PKCS1_OAEP
                0x00000000401a2295                RSA_padding_add_PKCS1_OAEP
                0x00000000401a24ad                RSA_padding_add_PKCS1_type_1
                0x00000000401a2536                RSA_padding_check_PKCS1_type_1
                0x00000000401a2671                RSA_padding_add_PKCS1_type_2
                0x00000000401a274b                RSA_padding_check_PKCS1_type_2
                0x00000000401a2854                RSA_padding_add_SSLv23
                0x00000000401a2945                RSA_padding_check_SSLv23
                0x00000000401a2aad                RSA_padding_add_X931
                0x00000000401a2b52                RSA_padding_check_X931
                0x00000000401a2c67                RSA_X931_hash_id
                0x00000000401a2cad                X509_ocspid_print
                0x00000000401a2e3a                X509_signature_print
                0x00000000401a2f3a                ASN1_STRING_print
                0x00000000401a3016                ASN1_GENERALIZEDTIME_print
                0x00000000401a3230                ASN1_UTCTIME_print
                0x00000000401a3398                ASN1_TIME_print
                0x00000000401a33d1                X509_print_ex
                0x00000000401a3987                X509_print
                0x00000000401a39a0                X509_NAME_print
                0x00000000401a3aa2                X509_CERT_AUX_print
                0x00000000401a3cf6                d2i_AUTHORITY_KEYID
                0x00000000401a3d0a                i2d_AUTHORITY_KEYID
                0x00000000401a3d1e                AUTHORITY_KEYID_new
                0x00000000401a3d32                AUTHORITY_KEYID_free
                0x00000000401a3fd7                POLICYINFO_free
                0x00000000401a3feb                d2i_CERTIFICATEPOLICIES
                0x00000000401a3fff                i2d_CERTIFICATEPOLICIES
                0x00000000401a4013                CERTIFICATEPOLICIES_new
                0x00000000401a4027                CERTIFICATEPOLICIES_free
                0x00000000401a403b                d2i_POLICYINFO
                0x00000000401a404f                i2d_POLICYINFO
                0x00000000401a4063                POLICYINFO_new
                0x00000000401a4077                d2i_POLICYQUALINFO
                0x00000000401a408b                i2d_POLICYQUALINFO
                0x00000000401a409f                POLICYQUALINFO_new
                0x00000000401a40b3                POLICYQUALINFO_free
                0x00000000401a40c7                d2i_USERNOTICE
                0x00000000401a40db                i2d_USERNOTICE
                0x00000000401a40ef                USERNOTICE_new
                0x00000000401a4103                USERNOTICE_free
                0x00000000401a4117                d2i_NOTICEREF
                0x00000000401a412b                i2d_NOTICEREF
                0x00000000401a413f                NOTICEREF_new
                0x00000000401a4acc                NOTICEREF_free
                0x00000000401a4ae0                X509_POLICY_NODE_print
                0x00000000401a513e                DIST_POINT_free
                0x00000000401a5152                d2i_DIST_POINT_NAME
                0x00000000401a5166                i2d_DIST_POINT_NAME
                0x00000000401a517a                DIST_POINT_NAME_new
                0x00000000401a5390                DIST_POINT_NAME_free
                0x00000000401a53a4                d2i_DIST_POINT
                0x00000000401a53b8                i2d_DIST_POINT
                0x00000000401a53cc                DIST_POINT_new
                0x00000000401a5657                d2i_CRL_DIST_POINTS
                0x00000000401a566b                i2d_CRL_DIST_POINTS
                0x00000000401a567f                CRL_DIST_POINTS_new
                0x00000000401a5693                CRL_DIST_POINTS_free
                0x00000000401a56a7                d2i_ISSUING_DIST_POINT
                0x00000000401a56bb                i2d_ISSUING_DIST_POINT
                0x00000000401a56cf                ISSUING_DIST_POINT_new
                0x00000000401a56e3                ISSUING_DIST_POINT_free
                0x00000000401a58c6                DIST_POINT_set_dpname
                0x00000000401a59c2                d2i_GENERAL_NAME
                0x00000000401a59d6                i2d_GENERAL_NAME
                0x00000000401a59ea                d2i_OTHERNAME
                0x00000000401a59fe                i2d_OTHERNAME
                0x00000000401a5a12                OTHERNAME_new
                0x00000000401a5a26                OTHERNAME_free
                0x00000000401a5a3a                d2i_EDIPARTYNAME
                0x00000000401a5a4e                i2d_EDIPARTYNAME
                0x00000000401a5a62                EDIPARTYNAME_new
                0x00000000401a5a76                EDIPARTYNAME_free
                0x00000000401a5a8a                GENERAL_NAME_new
                0x00000000401a5a9e                GENERAL_NAME_free
                0x00000000401a5ab2                d2i_GENERAL_NAMES
                0x00000000401a5ac6                i2d_GENERAL_NAMES
                0x00000000401a5ada                GENERAL_NAMES_new
                0x00000000401a5aee                GENERAL_NAMES_free
                0x00000000401a5b02                GENERAL_NAME_dup
                0x00000000401a5b1e                OTHERNAME_cmp
                0x00000000401a5b6a                GENERAL_NAME_cmp
                0x00000000401a5bfd                GENERAL_NAME_set0_value
                0x00000000401a5c35                GENERAL_NAME_get0_value
                0x00000000401a5c75                GENERAL_NAME_set0_othername
                0x00000000401a5cc1                GENERAL_NAME_get0_otherName
                0x00000000401a62f9                GENERAL_SUBTREE_new
                0x00000000401a630d                GENERAL_SUBTREE_free
                0x00000000401a6321                NAME_CONSTRAINTS_new
                0x00000000401a6335                NAME_CONSTRAINTS_free
                0x00000000401a651d                NAME_CONSTRAINTS_check
                0x00000000401a6659                POLICY_CONSTRAINTS_new
                0x00000000401a666d                POLICY_CONSTRAINTS_free
                0x00000000401a6870                POLICY_MAPPING_free
                0x00000000401a6884                POLICY_MAPPING_new
                0x00000000401a6b42                X509V3_EXT_val_prn
                0x00000000401a6c6b                X509V3_EXT_print
                0x00000000401a6e47                X509V3_extensions_print
                0x00000000401a7083                X509V3_conf_free
                0x00000000401a717e                X509V3_add_value
                0x00000000401a7298                X509V3_add_value_uchar
                0x00000000401a72a7                X509V3_add_value_bool
                0x00000000401a72cb                X509V3_add_value_bool_nf
                0x00000000401a72e9                i2s_ASN1_ENUMERATED
                0x00000000401a7357                i2s_ASN1_INTEGER
                0x00000000401a73c5                s2i_ASN1_INTEGER
                0x00000000401a753d                X509V3_add_value_int
                0x00000000401a7596                X509V3_get_value_bool
                0x00000000401a7707                X509V3_get_value_int
                0x00000000401a7770                X509V3_parse_list
                0x00000000401a798d                hex_to_string
                0x00000000401a7a4c                string_to_hex
                0x00000000401a7c10                name_cmp
                0x00000000401a7c68                X509_email_free
                0x00000000401a7dd6                X509_get1_email
                0x00000000401a7e26                X509_REQ_get1_email
                0x00000000401a7e97                X509_get1_ocsp
                0x00000000401a7f36                a2i_ipadd
                0x00000000401a80ac                a2i_IPADDRESS
                0x00000000401a810e                a2i_IPADDRESS_NC
                0x00000000401a81e1                X509V3_NAME_from_section
                0x00000000401a82c4                X509_issuer_and_serial_hash
                0x00000000401a8399                X509_CRL_match
                0x00000000401a83b5                X509_get_issuer_name
                0x00000000401a83c1                X509_get_subject_name
                0x00000000401a83cd                X509_get_serialNumber
                0x00000000401a83d9                X509_cmp
                0x00000000401a8429                X509_NAME_cmp
                0x00000000401a84a5                X509_issuer_and_serial_cmp
                0x00000000401a84dd                X509_issuer_name_cmp
                0x00000000401a84fa                X509_subject_name_cmp
                0x00000000401a8517                X509_CRL_cmp
                0x00000000401a8534                X509_NAME_hash
                0x00000000401a859d                X509_issuer_name_hash
                0x00000000401a85b3                X509_subject_name_hash
                0x00000000401a85c9                X509_NAME_hash_old
                0x00000000401a8635                X509_issuer_name_hash_old
                0x00000000401a864b                X509_subject_name_hash_old
                0x00000000401a8661                X509_find_by_issuer_and_serial
                0x00000000401a86e8                X509_find_by_subject
                0x00000000401a874a                X509_get_pubkey
                0x00000000401a876f                X509_get0_pubkey_bitstr
                0x00000000401a8788                X509_check_private_key
                0x00000000401a884e                X509_CRL_get_ext_count
                0x00000000401a8864                X509_CRL_get_ext_by_NID
                0x00000000401a887a                X509_CRL_get_ext_by_OBJ
                0x00000000401a8890                X509_CRL_get_ext_by_critical
                0x00000000401a88a6                X509_CRL_get_ext
                0x00000000401a88bc                X509_CRL_delete_ext
                0x00000000401a88d2                X509_CRL_get_ext_d2i
                0x00000000401a88e8                X509_CRL_add1_ext_i2d
                0x00000000401a88fe                X509_CRL_add_ext
                0x00000000401a891d                X509_get_ext_count
                0x00000000401a8933                X509_get_ext_by_NID
                0x00000000401a8949                X509_get_ext_by_OBJ
                0x00000000401a895f                X509_get_ext_by_critical
                0x00000000401a8975                X509_get_ext
                0x00000000401a898b                X509_delete_ext
                0x00000000401a89a1                X509_add_ext
                0x00000000401a89c0                X509_get_ext_d2i
                0x00000000401a89d6                X509_add1_ext_i2d
                0x00000000401a89ec                X509_REVOKED_get_ext_count
                0x00000000401a89ff                X509_REVOKED_get_ext_by_NID
                0x00000000401a8a12                X509_REVOKED_get_ext_by_OBJ
                0x00000000401a8a25                X509_REVOKED_get_ext_by_critical
                0x00000000401a8a38                X509_REVOKED_get_ext
                0x00000000401a8a4b                X509_REVOKED_delete_ext
                0x00000000401a8a5e                X509_REVOKED_add_ext
                0x00000000401a8a7a                X509_REVOKED_get_ext_d2i
                0x00000000401a8a8d                X509_REVOKED_add1_ext_i2d
                0x00000000401a8aa0                X509_NAME_oneline
                0x00000000401a8eb3                X509_to_X509_REQ
                0x00000000401a8fb1                X509_REQ_get_pubkey
                0x00000000401a8fd6                X509_REQ_check_private_key
                0x00000000401a9103                X509_REQ_extension_nid
                0x00000000401a912e                X509_REQ_get_extension_nids
                0x00000000401a913a                X509_REQ_set_extension_nids
                0x00000000401a9146                X509_REQ_add_extensions_nid
                0x00000000401a9248                X509_REQ_add_extensions
                0x00000000401a925c                X509_REQ_get_attr_count
                0x00000000401a9272                X509_REQ_get_attr_by_NID
                0x00000000401a9288                X509_REQ_get_attr_by_OBJ
                0x00000000401a929e                X509_REQ_get_attr
                0x00000000401a92b4                X509_REQ_get_extensions
                0x00000000401a9390                X509_REQ_delete_attr
                0x00000000401a93a6                X509_REQ_add1_attr
                0x00000000401a93c5                X509_REQ_add1_attr_by_OBJ
                0x00000000401a93e4                X509_REQ_add1_attr_by_NID
                0x00000000401a9403                X509_REQ_add1_attr_by_txt
                0x00000000401a9422                X509v3_get_ext_count
                0x00000000401a943c                X509v3_get_ext_by_OBJ
                0x00000000401a94ae                X509v3_get_ext_by_NID
                0x00000000401a94e5                X509v3_get_ext_by_critical
                0x00000000401a955f                X509v3_get_ext
                0x00000000401a95a0                X509v3_delete_ext
                0x00000000401a95e1                X509v3_add_ext
                0x00000000401a96fd                X509_EXTENSION_set_object
                0x00000000401a9740                X509_EXTENSION_set_critical
                0x00000000401a975f                X509_EXTENSION_set_data
                0x00000000401a978e                X509_EXTENSION_create_by_OBJ
                0x00000000401a987a                X509_EXTENSION_create_by_NID
                0x00000000401a98f4                X509_EXTENSION_get_object
                0x00000000401a9905                X509_EXTENSION_get_data
                0x00000000401a9917                X509_EXTENSION_get_critical
                0x00000000401a9d42                X509_time_adj_ex
                0x00000000401a9d93                X509_time_adj
                0x00000000401a9dad                X509_cmp_time
                0x00000000401aa286                X509_cmp_current_time
                0x00000000401aae93                X509_gmtime_adj
                0x00000000401aaea7                X509_get_pubkey_parameters
                0x00000000401aafdb                X509_verify_cert
                0x00000000401ab9bc                X509_STORE_CTX_get_ex_new_index
                0x00000000401ab9df                X509_STORE_CTX_set_ex_data
                0x00000000401ab9f5                X509_STORE_CTX_get_ex_data
                0x00000000401aba0b                X509_STORE_CTX_get_error
                0x00000000401aba16                X509_STORE_CTX_set_error
                0x00000000401aba21                X509_STORE_CTX_get_error_depth
                0x00000000401aba2c                X509_STORE_CTX_get_current_cert
                0x00000000401aba38                X509_STORE_CTX_get_chain
                0x00000000401aba44                X509_STORE_CTX_get1_chain
                0x00000000401abab1                X509_STORE_CTX_get0_current_issuer
                0x00000000401ababd                X509_STORE_CTX_get0_current_crl
                0x00000000401abac9                X509_STORE_CTX_get0_parent_ctx
                0x00000000401abad5                X509_STORE_CTX_set_cert
                0x00000000401abade                X509_STORE_CTX_set_chain
                0x00000000401abae7                X509_STORE_CTX_set0_crls
                0x00000000401abaf0                X509_STORE_CTX_purpose_inherit
                0x00000000401abc6e                X509_STORE_CTX_set_purpose
                0x00000000401abc89                X509_STORE_CTX_set_trust
                0x00000000401abca4                X509_STORE_CTX_new
                0x00000000401abd09                X509_STORE_CTX_init
                0x00000000401abffc                X509_STORE_CTX_trusted_stack
                0x00000000401ac00d                X509_STORE_CTX_cleanup
                0x00000000401ac0b6                X509_STORE_CTX_free
                0x00000000401ac0d9                X509_STORE_CTX_set_depth
                0x00000000401ac0ec                X509_STORE_CTX_set_flags
                0x00000000401ac0ff                X509_STORE_CTX_set_time
                0x00000000401ac114                X509_STORE_CTX_set_verify_cb
                0x00000000401ac11d                X509_STORE_CTX_get0_policy_tree
                0x00000000401ac129                X509_STORE_CTX_get_explicit_policy
                0x00000000401ac134                X509_STORE_CTX_set_default
                0x00000000401ac168                X509_STORE_CTX_get0_param
                0x00000000401ac171                X509_STORE_CTX_set0_param
                0x00000000401ac499                X509_VERIFY_PARAM_free
                0x00000000401ac533                X509_VERIFY_PARAM_new
                0x00000000401ac5be                X509_VERIFY_PARAM_set1_name
                0x00000000401ac5f5                X509_VERIFY_PARAM_set_flags
                0x00000000401ac61a                X509_VERIFY_PARAM_clear_flags
                0x00000000401ac62b                X509_VERIFY_PARAM_get_flags
                0x00000000401ac634                X509_VERIFY_PARAM_set_purpose
                0x00000000401ac647                X509_VERIFY_PARAM_set_trust
                0x00000000401ac65a                X509_VERIFY_PARAM_set_depth
                0x00000000401ac662                X509_VERIFY_PARAM_set_time
                0x00000000401ac66f                X509_VERIFY_PARAM_add0_policy
                0x00000000401ac6b5                X509_VERIFY_PARAM_set1_policies
                0x00000000401ac79c                X509_VERIFY_PARAM_inherit
                0x00000000401ac921                X509_VERIFY_PARAM_set1
                0x00000000401ac94c                X509_VERIFY_PARAM_get_depth
                0x00000000401ac954                X509_VERIFY_PARAM_add0_table
                0x00000000401ac9de                X509_VERIFY_PARAM_lookup
                0x00000000401aca38                X509_VERIFY_PARAM_table_cleanup
                0x00000000401aca6f                X509_NAME_entry_count
                0x00000000401aca8c                X509_NAME_get_index_by_OBJ
                0x00000000401acb03                X509_NAME_get_index_by_NID
                0x00000000401acb3a                X509_NAME_get_entry
                0x00000000401acb7e                X509_NAME_get_text_by_OBJ
                0x00000000401acbf8                X509_NAME_get_text_by_NID
                0x00000000401acc41                X509_NAME_delete_entry
                0x00000000401acd0f                X509_NAME_add_entry
                0x00000000401ace99                X509_NAME_ENTRY_set_object
                0x00000000401acefb                X509_NAME_ENTRY_set_data
                0x00000000401acfd4                X509_NAME_ENTRY_create_by_OBJ
                0x00000000401ad09e                X509_NAME_add_entry_by_OBJ
                0x00000000401ad0f3                X509_NAME_ENTRY_create_by_txt
                0x00000000401ad19a                X509_NAME_add_entry_by_txt
                0x00000000401ad1ef                X509_NAME_ENTRY_create_by_NID
                0x00000000401ad274                X509_NAME_add_entry_by_NID
                0x00000000401ad2c9                X509_NAME_ENTRY_get_object
                0x00000000401ad2da                X509_NAME_ENTRY_get_data
                0x00000000401ad2ec                X509_REQ_set_version
                0x00000000401ad30d                X509_REQ_set_subject_name
                0x00000000401ad339                X509_REQ_set_pubkey
                0x00000000401ad365                X509_verify
                0x00000000401ad387                X509_REQ_verify
                0x00000000401ad3a9                NETSCAPE_SPKI_verify
                0x00000000401ad3cb                X509_sign
                0x00000000401ad403                X509_REQ_sign
                0x00000000401ad42f                X509_CRL_sign
                0x00000000401ad467                NETSCAPE_SPKI_sign
                0x00000000401ad493                d2i_X509_bio
                0x00000000401ad4ad                i2d_X509_bio
                0x00000000401ad4c7                d2i_X509_CRL_bio
                0x00000000401ad4e1                i2d_X509_CRL_bio
                0x00000000401ad4fb                d2i_PKCS7_bio
                0x00000000401ad515                i2d_PKCS7_bio
                0x00000000401ad52f                d2i_X509_REQ_bio
                0x00000000401ad549                i2d_X509_REQ_bio
                0x00000000401ad563                d2i_RSAPrivateKey_bio
                0x00000000401ad57d                i2d_RSAPrivateKey_bio
                0x00000000401ad597                d2i_RSAPublicKey_bio
                0x00000000401ad5b1                d2i_RSA_PUBKEY_bio
                0x00000000401ad5d0                i2d_RSAPublicKey_bio
                0x00000000401ad5ea                i2d_RSA_PUBKEY_bio
                0x00000000401ad604                d2i_DSAPrivateKey_bio
                0x00000000401ad623                i2d_DSAPrivateKey_bio
                0x00000000401ad63d                d2i_DSA_PUBKEY_bio
                0x00000000401ad65c                i2d_DSA_PUBKEY_bio
                0x00000000401ad676                d2i_EC_PUBKEY_bio
                0x00000000401ad695                i2d_EC_PUBKEY_bio
                0x00000000401ad6af                d2i_ECPrivateKey_bio
                0x00000000401ad6ce                i2d_ECPrivateKey_bio
                0x00000000401ad6e8                X509_pubkey_digest
                0x00000000401ad73b                X509_digest
                0x00000000401ad758                X509_CRL_digest
                0x00000000401ad775                X509_REQ_digest
                0x00000000401ad792                X509_NAME_digest
                0x00000000401ad7af                PKCS7_ISSUER_AND_SERIAL_digest
                0x00000000401ad7cc                d2i_PKCS8_bio
                0x00000000401ad7eb                i2d_PKCS8_bio
                0x00000000401ad805                d2i_PKCS8_PRIV_KEY_INFO_bio
                0x00000000401ad824                i2d_PKCS8_PRIV_KEY_INFO_bio
                0x00000000401ad83e                i2d_PKCS8PrivateKeyInfo_bio
                0x00000000401ad88c                i2d_PrivateKey_bio
                0x00000000401ad8a6                d2i_PrivateKey_bio
                0x00000000401ad8c5                i2d_PUBKEY_bio
                0x00000000401ad8df                d2i_PUBKEY_bio
                0x00000000401ad8fe                d2i_X509_ATTRIBUTE
                0x00000000401ad912                i2d_X509_ATTRIBUTE
                0x00000000401ad926                X509_ATTRIBUTE_new
                0x00000000401ad93a                X509_ATTRIBUTE_free
                0x00000000401ad94e                X509_ATTRIBUTE_dup
                0x00000000401ad965                X509_ATTRIBUTE_create
                0x00000000401add6a                d2i_X509_PUBKEY
                0x00000000401add7e                i2d_X509_PUBKEY
                0x00000000401add92                X509_PUBKEY_new
                0x00000000401adda6                X509_PUBKEY_free
                0x00000000401addba                X509_PUBKEY_set
                0x00000000401adeae                X509_PUBKEY_get
                0x00000000401ae088                d2i_PUBKEY
                0x00000000401ae0eb                i2d_PUBKEY
                0x00000000401ae14b                d2i_RSA_PUBKEY
                0x00000000401ae1c6                i2d_RSA_PUBKEY
                0x00000000401ae241                d2i_DSA_PUBKEY
                0x00000000401ae2bc                i2d_DSA_PUBKEY
                0x00000000401ae337                d2i_EC_PUBKEY
                0x00000000401ae3b2                i2d_EC_PUBKEY
                0x00000000401ae42d                X509_PUBKEY_set0_param
                0x00000000401ae4a0                X509_PUBKEY_get0_param
                0x00000000401ae511                d2i_X509_REQ_INFO
                0x00000000401ae525                i2d_X509_REQ_INFO
                0x00000000401ae539                X509_REQ_INFO_new
                0x00000000401ae54d                X509_REQ_INFO_free
                0x00000000401ae561                d2i_X509_REQ
                0x00000000401ae575                i2d_X509_REQ
                0x00000000401ae589                X509_REQ_new
                0x00000000401ae59d                X509_REQ_free
                0x00000000401ae5b1                X509_REQ_dup
                0x00000000401ae5c8                d2i_NETSCAPE_SPKAC
                0x00000000401ae5dc                i2d_NETSCAPE_SPKAC
                0x00000000401ae5f0                NETSCAPE_SPKAC_new
                0x00000000401ae604                NETSCAPE_SPKAC_free
                0x00000000401ae618                d2i_NETSCAPE_SPKI
                0x00000000401ae62c                i2d_NETSCAPE_SPKI
                0x00000000401ae640                NETSCAPE_SPKI_new
                0x00000000401ae654                NETSCAPE_SPKI_free
                0x00000000401ae668                d2i_X509_VAL
                0x00000000401ae67c                i2d_X509_VAL
                0x00000000401ae690                X509_VAL_new
                0x00000000401ae6a4                X509_VAL_free
                0x00000000401ae6d6                EVP_PKEY_meth_find
                0x00000000401ae74c                EVP_PKEY_meth_new
                0x00000000401ae86d                EVP_PKEY_meth_free
                0x00000000401ae888                EVP_PKEY_meth_add0
                0x00000000401ae8eb                EVP_PKEY_CTX_free
                0x00000000401aea65                EVP_PKEY_CTX_new
                0x00000000401aea79                EVP_PKEY_CTX_new_id
                0x00000000401aea8f                EVP_PKEY_CTX_dup
                0x00000000401aeb84                EVP_PKEY_CTX_ctrl
                0x00000000401aec8a                EVP_PKEY_CTX_ctrl_str
                0x00000000401aed69                EVP_PKEY_CTX_get_operation
                0x00000000401aed71                EVP_PKEY_CTX_set0_keygen_info
                0x00000000401aed7d                EVP_PKEY_CTX_set_data
                0x00000000401aed86                EVP_PKEY_CTX_get_data
                0x00000000401aed8f                EVP_PKEY_CTX_get0_pkey
                0x00000000401aed98                EVP_PKEY_CTX_get0_peerkey
                0x00000000401aeda1                EVP_PKEY_CTX_set_app_data
                0x00000000401aedaa                EVP_PKEY_CTX_get_app_data
                0x00000000401aedb3                EVP_PKEY_meth_set_init
                0x00000000401aedbc                EVP_PKEY_meth_set_copy
                0x00000000401aedc5                EVP_PKEY_meth_set_cleanup
                0x00000000401aedce                EVP_PKEY_meth_set_paramgen
                0x00000000401aeddb                EVP_PKEY_meth_set_keygen
                0x00000000401aede8                EVP_PKEY_meth_set_sign
                0x00000000401aedf5                EVP_PKEY_meth_set_verify
                0x00000000401aee02                EVP_PKEY_meth_set_verify_recover
                0x00000000401aee0f                EVP_PKEY_meth_set_signctx
                0x00000000401aee1c                EVP_PKEY_meth_set_verifyctx
                0x00000000401aee2f                EVP_PKEY_meth_set_encrypt
                0x00000000401aee42                EVP_PKEY_meth_set_decrypt
                0x00000000401aee55                EVP_PKEY_meth_set_derive
                0x00000000401aee68                EVP_PKEY_meth_set_ctrl
                0x00000000401aee99                EVP_PKEY_asn1_get_count
                0x00000000401aeebd                EVP_PKEY_asn1_get0
                0x00000000401aeef1                EVP_PKEY_asn1_find
                0x00000000401aef9e                EVP_PKEY_asn1_find_str
                0x00000000401af02f                EVP_PKEY_asn1_add0
                0x00000000401af092                EVP_PKEY_asn1_get0_info
                0x00000000401af0e7                EVP_PKEY_get0_asn1
                0x00000000401af0f0                EVP_PKEY_asn1_copy
                0x00000000401af1b7                EVP_PKEY_asn1_free
                0x00000000401af1fd                EVP_PKEY_asn1_new
                0x00000000401af374                EVP_PKEY_asn1_add_alias
                0x00000000401af3b4                EVP_PKEY_asn1_set_public
                0x00000000401af3da                EVP_PKEY_asn1_set_private
                0x00000000401af3eb                EVP_PKEY_asn1_set_param
                0x00000000401af41a                EVP_PKEY_asn1_set_free
                0x00000000401af426                EVP_PKEY_asn1_set_ctrl
                0x00000000401af432                EVP_PKEY_sign_init
                0x00000000401af4a8                EVP_PKEY_sign
                0x00000000401af5ad                EVP_PKEY_verify_init
                0x00000000401af623                EVP_PKEY_verify
                0x00000000401af697                EVP_PKEY_verify_recover_init
                0x00000000401af70d                EVP_PKEY_verify_recover
                0x00000000401af812                EVP_PKEY_encrypt_init
                0x00000000401af88e                EVP_PKEY_encrypt
                0x00000000401af99c                EVP_PKEY_decrypt_init
                0x00000000401afa18                EVP_PKEY_decrypt
                0x00000000401afb26                EVP_PKEY_derive_init
                0x00000000401afba2                EVP_PKEY_derive_set_peer
                0x00000000401afdb9                EVP_PKEY_derive
                0x00000000401affcc                ASN1_PCTX_new
                0x00000000401b0046                ASN1_PCTX_free
                0x00000000401b0055                ASN1_PCTX_get_flags
                0x00000000401b005d                ASN1_PCTX_set_flags
                0x00000000401b0065                ASN1_PCTX_get_nm_flags
                0x00000000401b006e                ASN1_PCTX_set_nm_flags
                0x00000000401b0077                ASN1_PCTX_get_cert_flags
                0x00000000401b0080                ASN1_PCTX_set_cert_flags
                0x00000000401b0089                ASN1_PCTX_get_oid_flags
                0x00000000401b0092                ASN1_PCTX_set_oid_flags
                0x00000000401b009b                ASN1_PCTX_get_str_flags
                0x00000000401b00a4                ASN1_PCTX_set_str_flags
                0x00000000401b00ad                asn1_template_print_ctx
                0x00000000401b09c6                ASN1_item_print
                0x00000000401b0bb0                EVP_DigestSignInit
                0x00000000401b0bc5                EVP_DigestVerifyInit
                0x00000000401b0bda                EVP_DigestSignFinal
                0x00000000401b0d19                EVP_DigestVerifyFinal
                0x00000000401b4182                DHparams_print
                0x00000000401b6145                EVP_PKEY_paramgen_init
                0x00000000401b61bb                EVP_PKEY_paramgen
                0x00000000401b6280                EVP_PKEY_keygen_init
                0x00000000401b62f6                EVP_PKEY_keygen
                0x00000000401b63bb                EVP_PKEY_CTX_set_cb
                0x00000000401b63c4                EVP_PKEY_CTX_get_cb
                0x00000000401b63cd                evp_pkey_set_cb_translate
                0x00000000401b63e4                EVP_PKEY_CTX_get_keygen_info
                0x00000000401b640a                EVP_PKEY_new_mac_key
                0x00000000401b6574                CMS_SignedData_init
                0x00000000401b658c                cms_set1_SignerIdentifier
                0x00000000401b66a2                cms_SignerIdentifier_get0_signer_id
                0x00000000401b66ee                cms_SignerIdentifier_cert_cmp
                0x00000000401b6777                CMS_get0_SignerInfos
                0x00000000401b678f                CMS_get0_signers
                0x00000000401b6818                CMS_SignerInfo_set1_signer_cert
                0x00000000401b687d                CMS_SignerInfo_get0_signer_id
                0x00000000401b6890                CMS_SignerInfo_cert_cmp
                0x00000000401b68a3                CMS_set1_signers_certs
                0x00000000401b69d0                CMS_SignerInfo_get0_algs
                0x00000000401b6a08                CMS_SignerInfo_sign
                0x00000000401b6c72                cms_SignedData_final
                0x00000000401b6ead                CMS_SignerInfo_verify
                0x00000000401b6fe1                cms_SignedData_init_bio
                0x00000000401b71aa                CMS_SignerInfo_verify_content
                0x00000000401b7390                CMS_add_smimecap
                0x00000000401b73f1                CMS_add_simple_smimecap
                0x00000000401b752b                CMS_add_standard_smimecap
                0x00000000401b7653                CMS_add1_signer
                0x00000000401b7bc5                CMS_get0_RecipientInfos
                0x00000000401b7bdd                CMS_RecipientInfo_type
                0x00000000401b7be4                CMS_EnvelopedData_create
                0x00000000401b7ce4                CMS_add1_recipient_cert
                0x00000000401b7ed6                CMS_RecipientInfo_ktri_get0_algs
                0x00000000401b7f3d                CMS_RecipientInfo_ktri_get0_signer_id
                0x00000000401b7f7f                CMS_RecipientInfo_ktri_cert_cmp
                0x00000000401b7fc1                CMS_RecipientInfo_set0_pkey
                0x00000000401b8002                CMS_RecipientInfo_kekri_id_cmp
                0x00000000401b8065                CMS_add0_recipient_key
                0x00000000401b82f6                CMS_RecipientInfo_kekri_get0_id
                0x00000000401b83aa                CMS_RecipientInfo_set0_key
                0x00000000401b83ef                CMS_RecipientInfo_decrypt
                0x00000000401b87d6                cms_EnvelopedData_init_bio
                0x00000000401b8c40                EC_KEY_print
                0x00000000401b8cb1                ECParameters_print
                0x00000000401b8d15                ECPKParameters_print
                0x00000000401b98a9                CMS_signed_get_attr_count
                0x00000000401b98bc                CMS_signed_get_attr_by_NID
                0x00000000401b98cf                CMS_signed_get_attr_by_OBJ
                0x00000000401b98e2                CMS_signed_get_attr
                0x00000000401b98f5                CMS_signed_delete_attr
                0x00000000401b9908                CMS_signed_add1_attr
                0x00000000401b9924                CMS_signed_add1_attr_by_OBJ
                0x00000000401b9940                CMS_signed_add1_attr_by_NID
                0x00000000401b995c                CMS_signed_add1_attr_by_txt
                0x00000000401b9978                CMS_signed_get0_data_by_OBJ
                0x00000000401b998b                CMS_unsigned_get_attr_count
                0x00000000401b999e                CMS_unsigned_get_attr_by_NID
                0x00000000401b99b1                CMS_unsigned_get_attr_by_OBJ
                0x00000000401b99c4                CMS_unsigned_get_attr
                0x00000000401b99d7                CMS_unsigned_delete_attr
                0x00000000401b99ea                CMS_unsigned_add1_attr
                0x00000000401b9a06                CMS_unsigned_add1_attr_by_OBJ
                0x00000000401b9a22                CMS_unsigned_add1_attr_by_NID
                0x00000000401b9a3e                CMS_unsigned_add1_attr_by_txt
                0x00000000401b9a5a                CMS_unsigned_get0_data_by_OBJ
                0x00000000401b9bca                d2i_CMS_ContentInfo
                0x00000000401b9bde                i2d_CMS_ContentInfo
                0x00000000401b9bf2                CMS_ContentInfo_new
                0x00000000401b9c06                CMS_ContentInfo_free
                0x00000000401b9c1a                CMS_ContentInfo_print_ctx
                0x00000000401b9c31                CMS_get0_type
                0x00000000401b9c39                CMS_get0_content
                0x00000000401b9d11                cms_content_bio
                0x00000000401b9d5d                CMS_dataInit
                0x00000000401b9e48                CMS_dataFinal
                0x00000000401b9fba                CMS_get0_eContentType
                0x00000000401b9fd1                CMS_set1_eContentType
                0x00000000401ba027                CMS_is_detached
                0x00000000401ba04c                CMS_set_detached
                0x00000000401ba0db                cms_Data_create
                0x00000000401ba118                cms_DigestAlgorithm_set
                0x00000000401ba15f                cms_DigestAlgorithm_init_bio
                0x00000000401ba252                cms_DigestAlgorithm_find_ctx
                0x00000000401ba331                CMS_add0_CertificateChoices
                0x00000000401ba3a4                CMS_add0_cert
                0x00000000401ba46a                CMS_add1_cert
                0x00000000401ba4ac                CMS_add0_RevocationInfoChoice
                0x00000000401ba51f                CMS_add0_crl
                0x00000000401ba555                CMS_add1_crl
                0x00000000401ba597                CMS_get1_certs
                0x00000000401ba655                CMS_get1_crls
                0x00000000401ba853                cms_EncryptedContent_init_bio
                0x00000000401bad4f                cms_EncryptedContent_init
                0x00000000401badc9                CMS_EncryptedData_set1_key
                0x00000000401baec3                cms_EncryptedData_init_bio
                0x00000000401baeef                AES_wrap_key
                0x00000000401bb00a                AES_unwrap_key
                0x00000000401bb150                cms_DigestedData_create
                0x00000000401bb1d2                cms_DigestedData_init_bio
                0x00000000401bb1e9                cms_DigestedData_do_final
                0x00000000401bb303                CMS_stream
                0x00000000401bb385                d2i_CMS_bio
                0x00000000401bb39f                i2d_CMS_bio
                0x00000000401bb3b9                PEM_read_bio_CMS
                0x00000000401bb3de                PEM_write_bio_CMS
                0x00000000401bb413                BIO_new_CMS
                0x00000000401bb427                i2d_CMS_bio_stream
                0x00000000401bb43c                PEM_write_bio_CMS_stream
                0x00000000401bb457                SMIME_write_CMS
                0x00000000401bb4d4                SMIME_read_CMS
                0x00000000401bbdc6                SMIME_read_ASN1
                0x00000000401bc208                SMIME_crlf_copy
                0x00000000401bc368                i2d_ASN1_bio_stream
                0x00000000401bc4de                PEM_write_bio_ASN1_stream
                0x00000000401bc557                SMIME_write_ASN1
                0x00000000401bcbff                SMIME_text
                0x00000000401bcf4a                BIO_new_NDEF
                0x00000000401bd6cf                BIO_f_asn1
                0x00000000401bd6d9                BIO_asn1_set_prefix
                0x00000000401bd702                BIO_asn1_get_prefix
                0x00000000401bd74a                BIO_asn1_set_suffix
                0x00000000401bd773                BIO_asn1_get_suffix
                0x00000000401bd7bb                i2d_ASN1_BOOLEAN
                0x00000000401bd837                d2i_ASN1_BOOLEAN
                0x00000000401bd8d6                ASN1_digest
                0x00000000401bd98f                ASN1_item_digest
                0x00000000401bda03                ASN1_GENERALIZEDTIME_check
                0x00000000401bdc49                ASN1_GENERALIZEDTIME_set_string
                0x00000000401bdcbb                ASN1_GENERALIZEDTIME_adj
                0x00000000401bde17                ASN1_GENERALIZEDTIME_set
                0x00000000401be0d0                ASN1_mbstring_ncopy
                0x00000000401be66f                ASN1_mbstring_copy
                0x00000000401be68a                ASN1_OCTET_STRING_dup
                0x00000000401be699                ASN1_OCTET_STRING_cmp
                0x00000000401be6a8                ASN1_OCTET_STRING_set
                0x00000000401be6b7                ASN1_PRINTABLE_type
                0x00000000401be79f                ASN1_UNIVERSALSTRING_to_string
                0x00000000401be846                ASN1_sign
                0x00000000401beb02                ASN1_item_sign
                0x00000000401bee2e                ASN1_STRING_set_default_mask
                0x00000000401bee3a                ASN1_STRING_get_default_mask
                0x00000000401bee46                ASN1_STRING_set_default_mask_asc
                0x00000000401bef16                ASN1_STRING_TABLE_get
                0x00000000401bef86                ASN1_STRING_set_by_NID
                0x00000000401bf037                ASN1_STRING_TABLE_add
                0x00000000401bf170                ASN1_STRING_TABLE_cleanup
                0x00000000401bfb8d                BIO_f_buffer
                0x00000000401c0934                BIO_f_base64
                0x00000000401c0fe3                BIO_f_cipher
                0x00000000401c0fed                BIO_set_cipher
                0x00000000401c13ed                BIO_f_md
                0x00000000401c13f7                BN_div
                0x00000000401c1e1c                BN_mod_exp2_mont
                0x00000000401c2a56                BIO_s_mem
                0x00000000401c2a60                BIO_new_mem_buf
                0x00000000401c2b5c                BIO_s_null
                0x00000000401c2c11                CONF_modules_load
                0x00000000401c30a0                CONF_modules_finish
                0x00000000401c311f                CONF_modules_unload
                0x00000000401c31e1                CONF_module_add
                0x00000000401c3207                CONF_modules_free
                0x00000000401c3220                CONF_imodule_get_name
                0x00000000401c3229                CONF_imodule_get_value
                0x00000000401c3232                CONF_imodule_get_usr_data
                0x00000000401c323b                CONF_imodule_set_usr_data
                0x00000000401c3244                CONF_imodule_get_module
                0x00000000401c324c                CONF_imodule_get_flags
                0x00000000401c3255                CONF_imodule_set_flags
                0x00000000401c325e                CONF_module_get_usr_data
                0x00000000401c3267                CONF_module_set_usr_data
                0x00000000401c3270                CONF_get1_default_config_file
                0x00000000401c32f1                CONF_modules_load_file
                0x00000000401c33c1                CONF_parse_list
                0x00000000401c34cd                d2i_PrivateKey
                0x00000000401c362c                d2i_AutoPrivateKey
                0x00000000401c3785                d2i_DHparams
                0x00000000401c3799                i2d_DHparams
                0x00000000401c37ad                DHparams_dup
                0x00000000401c37c4                DH_generate_parameters_ex
                0x00000000401c3e2c                DH_generate_key
                0x00000000401c3e40                DH_compute_key
                0x00000000401c3e54                DH_OpenSSL
                0x00000000401c3e5e                DH_set_default_method
                0x00000000401c3e6a                DH_get_default_method
                0x00000000401c3e99                DH_set_method
                0x00000000401c3edc                DH_new_method
                0x00000000401c3ff9                DH_new
                0x00000000401c400d                DH_free
                0x00000000401c40f1                DH_up_ref
                0x00000000401c4122                DH_get_ex_new_index
                0x00000000401c4145                DH_set_ex_data
                0x00000000401c4158                DH_get_ex_data
                0x00000000401c416b                DH_size
                0x00000000401c418a                dsa_builtin_paramgen
                0x00000000401c4a98                DSA_generate_parameters_ex
                0x00000000401c4b30                DSA_generate_key
                0x00000000401c4ccd                DSO_set_default_method
                0x00000000401c4cd9                DSO_get_default_method
                0x00000000401c4ce5                DSO_get_method
                0x00000000401c4ced                DSO_set_method
                0x00000000401c4cf8                DSO_new_method
                0x00000000401c4df8                DSO_new
                0x00000000401c4e0c                DSO_free
                0x00000000401c4f23                DSO_flags
                0x00000000401c4f35                DSO_up_ref
                0x00000000401c4f8d                DSO_bind_var
                0x00000000401c5030                DSO_bind_func
                0x00000000401c50ce                DSO_ctrl
                0x00000000401c5169                DSO_set_name_converter
                0x00000000401c51b2                DSO_get_filename
                0x00000000401c51f5                DSO_set_filename
                0x00000000401c52ef                DSO_load
                0x00000000401c54b4                DSO_merge
                0x00000000401c551b                DSO_convert_filename
                0x00000000401c5637                DSO_get_loaded_filename
                0x00000000401c567a                DSO_pathbyaddr
                0x00000000401c56ec                DSO_global_lookup
                0x00000000401c5749                DSO_METHOD_openssl
                0x00000000401c608b                EC_GROUP_get_basis_type
                0x00000000401c60f0                EC_GROUP_get_trinomial_basis
                0x00000000401c6170                EC_GROUP_get_pentanomial_basis
                0x00000000401c6236                X9_62_PENTANOMIAL_new
                0x00000000401c624a                X9_62_PENTANOMIAL_free
                0x00000000401c625e                X9_62_CHARACTERISTIC_TWO_new
                0x00000000401c6272                X9_62_CHARACTERISTIC_TWO_free
                0x00000000401c6286                ECPARAMETERS_new
                0x00000000401c629a                ECPARAMETERS_free
                0x00000000401c62ae                d2i_ECPKPARAMETERS
                0x00000000401c62c2                i2d_ECPKPARAMETERS
                0x00000000401c62d6                ECPKPARAMETERS_new
                0x00000000401c62ea                ECPKPARAMETERS_free
                0x00000000401c6ee1                d2i_EC_PRIVATEKEY
                0x00000000401c6ef5                i2d_EC_PRIVATEKEY
                0x00000000401c6f09                EC_PRIVATEKEY_new
                0x00000000401c6f1d                EC_PRIVATEKEY_free
                0x00000000401c6f31                d2i_ECPKParameters
                0x00000000401c6fe3                i2d_ECPKParameters
                0x00000000401c7075                d2i_ECPrivateKey
                0x00000000401c731d                i2d_ECPrivateKey
                0x00000000401c76f0                i2d_ECParameters
                0x00000000401c772e                d2i_ECParameters
                0x00000000401c7822                o2i_ECPublicKey
                0x00000000401c7913                i2o_ECPublicKey
                0x00000000401c7a5f                EC_GROUP_new_by_curve_name
                0x00000000401c7f43                EC_get_builtin_curves
                0x00000000401c7f8b                EC_GROUP_new_curve_GFp
                0x00000000401c8064                EC_GROUP_new_curve_GF2m
                0x00000000401c80d3                EC_KEY_new
                0x00000000401c8161                EC_KEY_free
                0x00000000401c81e7                EC_KEY_new_by_curve_name
                0x00000000401c822b                EC_KEY_copy
                0x00000000401c83c9                EC_KEY_dup
                0x00000000401c840c                EC_KEY_up_ref
                0x00000000401c843d                EC_KEY_generate_key
                0x00000000401c860b                EC_KEY_check_key
                0x00000000401c88d7                EC_KEY_get0_group
                0x00000000401c88e0                EC_KEY_set_group
                0x00000000401c8919                EC_KEY_get0_private_key
                0x00000000401c8922                EC_KEY_set_private_key
                0x00000000401c895b                EC_KEY_get0_public_key
                0x00000000401c8964                EC_KEY_set_public_key
                0x00000000401c89a1                EC_KEY_get_enc_flags
                0x00000000401c89a9                EC_KEY_set_enc_flags
                0x00000000401c89b1                EC_KEY_get_conv_form
                0x00000000401c89b9                EC_KEY_set_conv_form
                0x00000000401c89d5                EC_KEY_get_key_method_data
                0x00000000401c8a43                EC_KEY_insert_key_method_data
                0x00000000401c8ae0                EC_KEY_set_asn1_flag
                0x00000000401c8af9                EC_KEY_precompute_mult
                0x00000000401c8b17                EC_GROUP_new
                0x00000000401c8c34                EC_GROUP_method_of
                0x00000000401c8c3c                EC_METHOD_get_field_type
                0x00000000401c8c43                EC_GROUP_get0_generator
                0x00000000401c8c4c                EC_GROUP_get_order
                0x00000000401c8c84                EC_GROUP_get_cofactor
                0x00000000401c8cbc                EC_GROUP_set_curve_name
                0x00000000401c8cc4                EC_GROUP_get_curve_name
                0x00000000401c8ccc                EC_GROUP_set_asn1_flag
                0x00000000401c8cd4                EC_GROUP_get_asn1_flag
                0x00000000401c8cdc                EC_GROUP_set_point_conversion_form
                0x00000000401c8ce4                EC_GROUP_get_point_conversion_form
                0x00000000401c8cec                EC_GROUP_set_seed
                0x00000000401c8d75                EC_GROUP_get0_seed
                0x00000000401c8d7e                EC_GROUP_get_seed_len
                0x00000000401c8d87                EC_GROUP_set_curve_GFp
                0x00000000401c8dc5                EC_GROUP_get_curve_GFp
                0x00000000401c8e03                EC_GROUP_set_curve_GF2m
                0x00000000401c8e41                EC_GROUP_get_curve_GF2m
                0x00000000401c8e7f                EC_GROUP_get_degree
                0x00000000401c8ebd                EC_GROUP_check_discriminant
                0x00000000401c8efb                EC_EX_DATA_set_data
                0x00000000401c8fcf                EC_EX_DATA_get_data
                0x00000000401c8ffb                EC_EX_DATA_free_data
                0x00000000401c9053                EC_EX_DATA_clear_free_data
                0x00000000401c90ab                EC_EX_DATA_free_all_data
                0x00000000401c90fd                EC_EX_DATA_clear_free_all_data
                0x00000000401c914f                EC_POINT_new
                0x00000000401c921e                EC_POINT_free
                0x00000000401c9250                EC_GROUP_free
                0x00000000401c92b9                EC_POINT_clear_free
                0x00000000401c9305                EC_GROUP_clear_free
                0x00000000401c9399                EC_POINT_copy
                0x00000000401c940e                EC_GROUP_copy
                0x00000000401c9647                EC_GROUP_dup
                0x00000000401c9696                EC_GROUP_set_generator
                0x00000000401c9775                EC_POINT_dup
                0x00000000401c97c3                EC_POINT_method_of
                0x00000000401c97cb                EC_POINT_set_to_infinity
                0x00000000401c9834                EC_POINT_set_Jprojective_coordinates_GFp
                0x00000000401c989e                EC_POINT_get_Jprojective_coordinates_GFp
                0x00000000401c9908                EC_POINT_set_affine_coordinates_GFp
                0x00000000401c9975                EC_POINT_set_affine_coordinates_GF2m
                0x00000000401c99e2                EC_POINT_get_affine_coordinates_GFp
                0x00000000401c9a4f                EC_POINT_get_affine_coordinates_GF2m
                0x00000000401c9abc                EC_POINT_set_compressed_coordinates_GFp
                0x00000000401c9b29                EC_POINT_set_compressed_coordinates_GF2m
                0x00000000401c9b96                EC_POINT_point2oct
                0x00000000401c9c03                EC_POINT_oct2point
                0x00000000401c9c70                EC_POINT_add
                0x00000000401c9ced                EC_POINT_dbl
                0x00000000401c9d62                EC_POINT_invert
                0x00000000401c9dd0                EC_POINT_is_at_infinity
                0x00000000401c9e3c                EC_POINT_is_on_curve
                0x00000000401c9ea8                EC_POINT_cmp
                0x00000000401c9f1d                EC_GROUP_cmp
                0x00000000401ca1df                EC_POINT_make_affine
                0x00000000401ca24b                EC_POINTs_make_affine
                0x00000000401ca2cf                EC_POINTs_mul
                0x00000000401ca307                EC_POINT_mul
                0x00000000401ca33e                EC_GROUP_precompute_mult
                0x00000000401ca36f                EC_GROUP_have_precompute_mult
                0x00000000401ca7c2                ec_wNAF_mul
                0x00000000401cb621                ec_wNAF_precompute_mult
                0x00000000401cbc3c                ec_wNAF_have_precompute_mult
                0x00000000401cbc67                EC_POINT_point2bn
                0x00000000401cbd2f                EC_POINT_bn2point
                0x00000000401cbe2f                EC_POINT_point2hex
                0x00000000401cbf42                EC_POINT_hex2point
                0x00000000401cbfa6                ECDH_compute_key
                0x00000000401cc03f                ECDH_set_default_method
                0x00000000401cc04b                ECDH_get_default_method
                0x00000000401cc111                ecdh_check
                0x00000000401cc181                ECDH_set_method
                0x00000000401cc1b1                ECDH_get_ex_new_index
                0x00000000401cc1d4                ECDH_set_ex_data
                0x00000000401cc20a                ECDH_get_ex_data
                0x00000000401cc61e                ECDH_OpenSSL
                0x00000000401cc628                ec_GFp_mont_group_init
                0x00000000401cc659                ec_GFp_mont_group_finish
                0x00000000401cc6af                ec_GFp_mont_group_clear_finish
                0x00000000401cc705                ec_GFp_mont_group_copy
                0x00000000401cc7eb                ec_GFp_mont_field_mul
                0x00000000401cc838                ec_GFp_mont_field_sqr
                0x00000000401cc882                ec_GFp_mont_field_encode
                0x00000000401cc8d0                ec_GFp_mont_group_set_curve
                0x00000000401cca77                ec_GFp_mont_field_decode
                0x00000000401ccac1                ec_GFp_mont_field_set_to_one
                0x00000000401ccb11                EC_GFp_mont_method
                0x00000000401ccb1b                ec_GFp_nist_group_copy
                0x00000000401ccb38                ec_GFp_nist_group_set_curve
                0x00000000401cccee                ec_GFp_nist_field_mul
                0x00000000401ccdf3                ec_GFp_nist_field_sqr
                0x00000000401ccee4                EC_GFp_nist_method
                0x00000000401cceee                ec_GFp_simple_is_at_infinity
                0x00000000401ccefd                ec_GFp_simple_group_init
                0x00000000401ccf43                ec_GFp_simple_point_init
                0x00000000401ccf80                ec_GFp_simple_group_finish
                0x00000000401ccfb7                ec_GFp_simple_point_finish
                0x00000000401ccfe8                ec_GFp_simple_group_clear_finish
                0x00000000401cd01f                ec_GFp_simple_point_clear_finish
                0x00000000401cd057                ec_GFp_simple_group_copy
                0x00000000401cd0db                ec_GFp_simple_point_copy
                0x00000000401cd14d                ec_GFp_simple_group_get_degree
                0x00000000401cd160                ec_GFp_simple_group_set_curve
                0x00000000401cd3f7                ec_GFp_simple_group_get_curve
                0x00000000401cd53f                ec_GFp_simple_set_Jprojective_coordinates_GFp
                0x00000000401cd718                ec_GFp_simple_get_Jprojective_coordinates_GFp
                0x00000000401cd87a                ec_GFp_simple_field_sqr
                0x00000000401cd896                ec_GFp_simple_field_mul
                0x00000000401cd8b5                ec_GFp_simple_group_check_discriminant
                0x00000000401cdb26                ec_GFp_simple_point_set_to_infinity
                0x00000000401cdb4a                ec_GFp_simple_point_set_affine_coordinates
                0x00000000401cdbc9                ec_GFp_simple_cmp
                0x00000000401cdf20                ec_GFp_simple_point_get_affine_coordinates
                0x00000000401ce2e0                ec_GFp_simple_invert
                0x00000000401ce31f                ec_GFp_simple_set_compressed_coordinates
                0x00000000401ce8b3                ec_GFp_simple_make_affine
                0x00000000401cea58                ec_GFp_simple_point2oct
                0x00000000401cede1                ec_GFp_simple_is_on_curve
                0x00000000401cf1bc                ec_GFp_simple_oct2point
                0x00000000401cf5fb                ec_GFp_simple_add
                0x00000000401cfc97                ec_GFp_simple_dbl
                0x00000000401d022c                ec_GFp_simple_points_make_affine
                0x00000000401d07c3                EC_GFp_simple_method
                0x00000000401d07cd                EVP_EncodeInit
                0x00000000401d07e6                EVP_EncodeBlock
                0x00000000401d0913                EVP_EncodeUpdate
                0x00000000401d0a5b                EVP_EncodeFinal
                0x00000000401d0ab8                EVP_DecodeInit
                0x00000000401d0ad8                EVP_DecodeBlock
                0x00000000401d0c22                EVP_DecodeUpdate
                0x00000000401d0fb0                EVP_DecodeFinal
                0x00000000401d1019                ERR_print_errors_cb
                0x00000000401d1112                ERR_print_errors
                0x00000000401d1129                EVP_PKCS82PKEY
                0x00000000401d126e                EVP_PKEY2PKCS8_broken
                0x00000000401d1373                EVP_PKEY2PKCS8
                0x00000000401d1387                PKCS8_set_broken
                0x00000000401d13dc                EVP_PKEY_get_attr_count
                0x00000000401d13ef                EVP_PKEY_get_attr_by_NID
                0x00000000401d1402                EVP_PKEY_get_attr_by_OBJ
                0x00000000401d1415                EVP_PKEY_get_attr
                0x00000000401d1428                EVP_PKEY_delete_attr
                0x00000000401d143b                EVP_PKEY_add1_attr
                0x00000000401d1457                EVP_PKEY_add1_attr_by_OBJ
                0x00000000401d1473                EVP_PKEY_add1_attr_by_NID
                0x00000000401d148f                EVP_PKEY_add1_attr_by_txt
                0x00000000401d14ab                i2d_PrivateKey
                0x00000000401d1525                EVP_SignFinal
                0x00000000401d17cf                X509_policy_tree_free
                0x00000000401d1884                X509_policy_check
                0x00000000401d2249                PEM_def_callback
                0x00000000401d2277                PEM_proc_type
                0x00000000401d22e6                PEM_dek_info
                0x00000000401d23af                PEM_do_header
                0x00000000401d2572                PEM_get_EVP_CIPHER_INFO
                0x00000000401d2826                PEM_write_bio
                0x00000000401d2ae2                PEM_ASN1_write_bio
                0x00000000401d2f29                PEM_read_bio
                0x00000000401d35fc                pem_check_suffix
                0x00000000401d366d                PEM_bytes_read_bio
                0x00000000401d39da                PEM_ASN1_read_bio
                0x00000000401d3a7e                PKCS7_add_attrib_smimecap
                0x00000000401d3afb                PKCS7_get_smimecap
                0x00000000401d3b46                PKCS7_simple_smimecap
                0x00000000401d3c83                PKCS7_add_attrib_content_type
                0x00000000401d3cdb                PKCS7_add0_attrib_signing_time
                0x00000000401d3d48                PKCS7_add1_attrib_digest
                0x00000000401d3e07                d2i_RSAPrivateKey
                0x00000000401d3e1b                i2d_RSAPrivateKey
                0x00000000401d3e2f                d2i_RSAPublicKey
                0x00000000401d3e43                i2d_RSAPublicKey
                0x00000000401d3e57                RSAPublicKey_dup
                0x00000000401d3e6e                RSAPrivateKey_dup
                0x00000000401d3e85                RSA_generate_key_ex
                0x00000000401d44fb                RSA_verify_PKCS1_PSS
                0x00000000401d48ae                RSA_padding_add_PKCS1_PSS
                0x00000000401d4c2a                ASN1_bn_print
                0x00000000401d4fbd                i2v_GENERAL_NAME
                0x00000000401d5226                i2v_GENERAL_NAMES
                0x00000000401d528e                GENERAL_NAME_print
                0x00000000401d542d                a2i_GENERAL_NAME
                0x00000000401d57bf                v2i_GENERAL_NAME_ex
                0x00000000401d5925                v2i_GENERAL_NAME
                0x00000000401d5c7f                v2i_GENERAL_NAMES
                0x00000000401d6398                X509V3_EXT_nconf
                0x00000000401d6466                X509V3_EXT_nconf_nid
                0x00000000401d64e8                X509V3_EXT_i2d
                0x00000000401d654e                X509V3_EXT_add_nconf_sk
                0x00000000401d65fe                X509V3_EXT_add_nconf
                0x00000000401d6619                X509V3_EXT_CRL_add_nconf
                0x00000000401d6634                X509V3_EXT_REQ_add_nconf
                0x00000000401d6697                X509V3_get_string
                0x00000000401d66e6                X509V3_get_section
                0x00000000401d6736                X509V3_string_free
                0x00000000401d6759                X509V3_section_free
                0x00000000401d677c                X509V3_set_nconf
                0x00000000401d678d                X509V3_set_ctx
                0x00000000401d67a5                X509V3_EXT_conf
                0x00000000401d67e8                X509V3_EXT_conf_nid
                0x00000000401d682b                X509V3_set_conf_lhash
                0x00000000401d683c                X509V3_EXT_add_conf
                0x00000000401d687f                X509V3_EXT_CRL_add_conf
                0x00000000401d68c2                X509V3_EXT_REQ_add_conf
                0x00000000401d6a5a                ACCESS_DESCRIPTION_free
                0x00000000401d6a6e                d2i_ACCESS_DESCRIPTION
                0x00000000401d6a82                i2d_ACCESS_DESCRIPTION
                0x00000000401d6a96                ACCESS_DESCRIPTION_new
                0x00000000401d6ccb                d2i_AUTHORITY_INFO_ACCESS
                0x00000000401d6cdf                i2d_AUTHORITY_INFO_ACCESS
                0x00000000401d6cf3                AUTHORITY_INFO_ACCESS_new
                0x00000000401d6d07                AUTHORITY_INFO_ACCESS_free
                0x00000000401d6d1b                i2a_ACCESS_DESCRIPTION
                0x00000000401d6d66                X509V3_EXT_add
                0x00000000401d6dff                X509V3_EXT_get_nid
                0x00000000401d6e81                X509V3_EXT_get
                0x00000000401d6ea3                X509V3_EXT_add_list
                0x00000000401d6edf                X509V3_EXT_add_alias
                0x00000000401d6fee                X509V3_EXT_cleanup
                0x00000000401d7014                X509V3_add_standard_extensions
                0x00000000401d701e                X509V3_EXT_d2i
                0x00000000401d7075                X509V3_get_d2i
                0x00000000401d71b5                X509V3_add1_i2d
                0x00000000401d81d8                d2i_PROXY_POLICY
                0x00000000401d81ec                i2d_PROXY_POLICY
                0x00000000401d8200                PROXY_POLICY_new
                0x00000000401d8214                PROXY_POLICY_free
                0x00000000401d8228                d2i_PROXY_CERT_INFO_EXTENSION
                0x00000000401d823c                i2d_PROXY_CERT_INFO_EXTENSION
                0x00000000401d8250                PROXY_CERT_INFO_EXTENSION_new
                0x00000000401d8264                PROXY_CERT_INFO_EXTENSION_free
                0x00000000401d8312                d2i_PKEY_USAGE_PERIOD
                0x00000000401d8326                i2d_PKEY_USAGE_PERIOD
                0x00000000401d833a                PKEY_USAGE_PERIOD_new
                0x00000000401d834e                PKEY_USAGE_PERIOD_free
                0x00000000401d86d4                X509_PURPOSE_get_count
                0x00000000401d86f8                X509_PURPOSE_get0
                0x00000000401d8732                X509_PURPOSE_get_by_sname
                0x00000000401d8778                X509_PURPOSE_get_by_id
                0x00000000401d87b6                X509_PURPOSE_set
                0x00000000401d8806                X509_PURPOSE_add
                0x00000000401d89ea                X509_PURPOSE_cleanup
                0x00000000401d8a32                X509_PURPOSE_get_id
                0x00000000401d8a39                X509_PURPOSE_get0_name
                0x00000000401d8a42                X509_PURPOSE_get0_sname
                0x00000000401d8a4b                X509_PURPOSE_get_trust
                0x00000000401d8a53                X509_supported_extension
                0x00000000401d8f85                X509_check_purpose
                0x00000000401d9017                X509_check_ca
                0x00000000401d9077                X509_check_akid
                0x00000000401d915b                X509_check_issued
                0x00000000401d9209                i2s_ASN1_OCTET_STRING
                0x00000000401d9222                s2i_ASN1_OCTET_STRING
                0x00000000401d94e5                d2i_SXNETID
                0x00000000401d94f9                i2d_SXNETID
                0x00000000401d950d                SXNETID_new
                0x00000000401d9521                SXNETID_free
                0x00000000401d9535                d2i_SXNET
                0x00000000401d9549                i2d_SXNET
                0x00000000401d955d                SXNET_new
                0x00000000401d9571                SXNET_free
                0x00000000401d9585                SXNET_get_id_INTEGER
                0x00000000401d95e3                SXNET_add_id_INTEGER
                0x00000000401d97be                SXNET_add_id_asc
                0x00000000401d9891                SXNET_add_id_ulong
                0x00000000401d9921                SXNET_get_id_asc
                0x00000000401d9983                SXNET_get_id_ulong
                0x00000000401d9a0e                X509at_get_attr_count
                0x00000000401d9a1d                X509at_get_attr_by_OBJ
                0x00000000401d9a8f                X509at_get_attr_by_NID
                0x00000000401d9ac6                X509at_get_attr
                0x00000000401d9b07                X509at_delete_attr
                0x00000000401d9b48                X509at_add1_attr
                0x00000000401d9c3c                X509_ATTRIBUTE_set1_object
                0x00000000401d9c7f                X509_ATTRIBUTE_set1_data
                0x00000000401d9e2a                X509_ATTRIBUTE_create_by_OBJ
                0x00000000401d9f28                X509at_add1_attr_by_OBJ
                0x00000000401d9f6b                X509_ATTRIBUTE_create_by_NID
                0x00000000401d9ff7                X509at_add1_attr_by_NID
                0x00000000401da03a                X509_ATTRIBUTE_create_by_txt
                0x00000000401da0e1                X509at_add1_attr_by_txt
                0x00000000401da124                X509_ATTRIBUTE_count
                0x00000000401da149                X509_ATTRIBUTE_get0_object
                0x00000000401da15a                X509_ATTRIBUTE_get0_type
                0x00000000401da1a3                X509_ATTRIBUTE_get0_data
                0x00000000401da1fd                X509at_get0_data_by_OBJ
                0x00000000401da29c                X509_get_default_private_dir
                0x00000000401da2a6                X509_get_default_cert_area
                0x00000000401da2b0                X509_get_default_cert_dir
                0x00000000401da2ba                X509_get_default_cert_file
                0x00000000401da2c4                X509_get_default_cert_dir_env
                0x00000000401da2ce                X509_get_default_cert_file_env
                0x00000000401da453                X509_LOOKUP_new
                0x00000000401da4c8                X509_LOOKUP_free
                0x00000000401da500                X509_LOOKUP_init
                0x00000000401da52a                X509_LOOKUP_shutdown
                0x00000000401da554                X509_LOOKUP_ctrl
                0x00000000401da57f                X509_LOOKUP_by_subject
                0x00000000401da5b6                X509_LOOKUP_by_issuer_serial
                0x00000000401da5e0                X509_LOOKUP_by_fingerprint
                0x00000000401da60a                X509_LOOKUP_by_alias
                0x00000000401da634                X509_STORE_new
                0x00000000401da72d                X509_STORE_free
                0x00000000401da7ca                X509_STORE_add_lookup
                0x00000000401da85b                X509_OBJECT_up_ref_count
                0x00000000401da8b9                X509_OBJECT_free_contents
                0x00000000401da8e5                X509_OBJECT_idx_by_subject
                0x00000000401da8f9                X509_OBJECT_retrieve_by_subject
                0x00000000401da92a                X509_STORE_get_by_subject
                0x00000000401daa3a                X509_STORE_get1_certs
                0x00000000401dac02                X509_STORE_get1_crls
                0x00000000401dadc5                X509_OBJECT_retrieve_match
                0x00000000401daea8                X509_STORE_add_cert
                0x00000000401dafb7                X509_STORE_add_crl
                0x00000000401db0c6                X509_STORE_CTX_get1_issuer
                0x00000000401db259                X509_STORE_set_flags
                0x00000000401db26c                X509_STORE_set_depth
                0x00000000401db284                X509_STORE_set_purpose
                0x00000000401db297                X509_STORE_set_trust
                0x00000000401db2aa                X509_STORE_set1_param
                0x00000000401db2bd                X509_STORE_set_verify_cb
                0x00000000401db45d                X509_TRUST_set_default
                0x00000000401db470                X509_TRUST_get_count
                0x00000000401db494                X509_TRUST_get0
                0x00000000401db4cc                X509_TRUST_get_by_id
                0x00000000401db50a                X509_check_trust
                0x00000000401db568                X509_TRUST_set
                0x00000000401db5b8                X509_TRUST_add
                0x00000000401db78d                X509_TRUST_cleanup
                0x00000000401db7d5                X509_TRUST_get_flags
                0x00000000401db7dd                X509_TRUST_get0_name
                0x00000000401db7e6                X509_TRUST_get_trust
                0x00000000401dbe55                ASN1_generate_v3
                0x00000000401dc85e                ASN1_generate_nconf
                0x00000000401dc895                BN_kronecker
                0x00000000401dcb80                BN_get0_nist_prime_192
                0x00000000401dcb8a                BN_get0_nist_prime_224
                0x00000000401dcb94                BN_get0_nist_prime_256
                0x00000000401dcb9e                BN_get0_nist_prime_384
                0x00000000401dcba8                BN_get0_nist_prime_521
                0x00000000401dcbb2                BN_nist_mod_192
                0x00000000401dce29                BN_nist_mod_224
                0x00000000401dd174                BN_nist_mod_256
                0x00000000401dd615                BN_nist_mod_384
                0x00000000401ddbbe                BN_nist_mod_521
                0x00000000401dde62                BN_GENCB_call
                0x00000000401ddeb4                BN_is_prime_fasttest_ex
                0x00000000401de3d2                BN_generate_prime_ex
                0x00000000401de92f                BN_is_prime_ex
                0x00000000401de946                BN_mod_sqrt
                0x00000000401df27a                CONF_set_nconf
                0x00000000401df2b9                CONF_set_default_method
                0x00000000401df2ca                CONF_load
                0x00000000401df2f8                NCONF_new
                0x00000000401df349                NCONF_free
                0x00000000401df35f                NCONF_free_data
                0x00000000401df375                CONF_free
                0x00000000401df398                NCONF_load
                0x00000000401df3d3                NCONF_load_bio
                0x00000000401df40e                CONF_load_bio
                0x00000000401df453                NCONF_get_section
                0x00000000401df4c0                CONF_get_section
                0x00000000401df4f7                NCONF_get_string
                0x00000000401df591                CONF_get_string
                0x00000000401df5d6                NCONF_get_number_e
                0x00000000401df677                CONF_get_number
                0x00000000401df6db                NCONF_dump_bio
                0x00000000401df716                CONF_dump_bio
                0x00000000401df744                DH_check
                0x00000000401df88a                DH_check_pub_key
                0x00000000401df920                DSO_METHOD_null
                0x00000000401df92a                ec_GF2m_simple_is_at_infinity
                0x00000000401df939                ec_GF2m_simple_points_make_affine
                0x00000000401df99f                ec_GF2m_simple_group_init
                0x00000000401df9db                ec_GF2m_simple_point_init
                0x00000000401dfa11                ec_GF2m_simple_group_finish
                0x00000000401dfa48                ec_GF2m_simple_point_finish
                0x00000000401dfa79                ec_GF2m_simple_group_clear_finish
                0x00000000401dfaec                ec_GF2m_simple_point_clear_finish
                0x00000000401dfb24                ec_GF2m_simple_group_get_curve
                0x00000000401dfba8                ec_GF2m_simple_point_copy
                0x00000000401dfc1a                ec_GF2m_simple_group_copy
                0x00000000401dfdcf                ec_GF2m_simple_group_set_curve
                0x00000000401dff78                ec_GF2m_simple_group_get_degree
                0x00000000401dff8e                ec_GF2m_simple_group_check_discriminant
                0x00000000401e0057                ec_GF2m_simple_point_set_to_infinity
                0x00000000401e007b                ec_GF2m_simple_point_set_affine_coordinates
                0x00000000401e0165                ec_GF2m_simple_point_get_affine_coordinates
                0x00000000401e0260                ec_GF2m_simple_is_on_curve
                0x00000000401e0420                ec_GF2m_simple_set_compressed_coordinates
                0x00000000401e077d                ec_GF2m_simple_cmp
                0x00000000401e094b                ec_GF2m_simple_make_affine
                0x00000000401e0a74                ec_GF2m_simple_point2oct
                0x00000000401e0e35                ec_GF2m_simple_oct2point
                0x00000000401e12b2                ec_GF2m_simple_add
                0x00000000401e1794                ec_GF2m_simple_dbl
                0x00000000401e17a9                ec_GF2m_simple_invert
                0x00000000401e1808                ec_GF2m_simple_field_mul
                0x00000000401e182a                ec_GF2m_simple_field_sqr
                0x00000000401e1849                ec_GF2m_simple_field_div
                0x00000000401e1868                EC_GF2m_simple_method
                0x00000000401e1872                EVP_set_pw_prompt
                0x00000000401e18a2                EVP_get_pw_prompt
                0x00000000401e18bc                EVP_read_pw_string_min
                0x00000000401e1996                EVP_read_pw_string
                0x00000000401e19b2                EVP_BytesToKey
                0x00000000401e1c5b                i2a_ASN1_INTEGER
                0x00000000401e1db2                a2i_ASN1_INTEGER
                0x00000000401e20be                i2a_ASN1_STRING
                0x00000000401e21df                a2i_ASN1_STRING
                0x00000000401e24ac                d2i_OCSP_SIGNATURE
                0x00000000401e24c0                i2d_OCSP_SIGNATURE
                0x00000000401e24d4                OCSP_SIGNATURE_new
                0x00000000401e24e8                OCSP_SIGNATURE_free
                0x00000000401e24fc                d2i_OCSP_CERTID
                0x00000000401e2510                i2d_OCSP_CERTID
                0x00000000401e2524                OCSP_CERTID_new
                0x00000000401e2538                OCSP_CERTID_free
                0x00000000401e254c                d2i_OCSP_ONEREQ
                0x00000000401e2560                i2d_OCSP_ONEREQ
                0x00000000401e2574                OCSP_ONEREQ_new
                0x00000000401e2588                OCSP_ONEREQ_free
                0x00000000401e259c                d2i_OCSP_REQINFO
                0x00000000401e25b0                i2d_OCSP_REQINFO
                0x00000000401e25c4                OCSP_REQINFO_new
                0x00000000401e25d8                OCSP_REQINFO_free
                0x00000000401e25ec                d2i_OCSP_REQUEST
                0x00000000401e2600                i2d_OCSP_REQUEST
                0x00000000401e2614                OCSP_REQUEST_new
                0x00000000401e2628                OCSP_REQUEST_free
                0x00000000401e263c                d2i_OCSP_RESPBYTES
                0x00000000401e2650                i2d_OCSP_RESPBYTES
                0x00000000401e2664                OCSP_RESPBYTES_new
                0x00000000401e2678                OCSP_RESPBYTES_free
                0x00000000401e268c                d2i_OCSP_RESPONSE
                0x00000000401e26a0                i2d_OCSP_RESPONSE
                0x00000000401e26b4                OCSP_RESPONSE_new
                0x00000000401e26c8                OCSP_RESPONSE_free
                0x00000000401e26dc                d2i_OCSP_RESPID
                0x00000000401e26f0                i2d_OCSP_RESPID
                0x00000000401e2704                OCSP_RESPID_new
                0x00000000401e2718                OCSP_RESPID_free
                0x00000000401e272c                d2i_OCSP_REVOKEDINFO
                0x00000000401e2740                i2d_OCSP_REVOKEDINFO
                0x00000000401e2754                OCSP_REVOKEDINFO_new
                0x00000000401e2768                OCSP_REVOKEDINFO_free
                0x00000000401e277c                d2i_OCSP_CERTSTATUS
                0x00000000401e2790                i2d_OCSP_CERTSTATUS
                0x00000000401e27a4                OCSP_CERTSTATUS_new
                0x00000000401e27b8                OCSP_CERTSTATUS_free
                0x00000000401e27cc                d2i_OCSP_SINGLERESP
                0x00000000401e27e0                i2d_OCSP_SINGLERESP
                0x00000000401e27f4                OCSP_SINGLERESP_new
                0x00000000401e2808                OCSP_SINGLERESP_free
                0x00000000401e281c                d2i_OCSP_RESPDATA
                0x00000000401e2830                i2d_OCSP_RESPDATA
                0x00000000401e2844                OCSP_RESPDATA_new
                0x00000000401e2858                OCSP_RESPDATA_free
                0x00000000401e286c                d2i_OCSP_BASICRESP
                0x00000000401e2880                i2d_OCSP_BASICRESP
                0x00000000401e2894                OCSP_BASICRESP_new
                0x00000000401e28a8                OCSP_BASICRESP_free
                0x00000000401e28bc                d2i_OCSP_CRLID
                0x00000000401e28d0                i2d_OCSP_CRLID
                0x00000000401e28e4                OCSP_CRLID_new
                0x00000000401e28f8                OCSP_CRLID_free
                0x00000000401e290c                d2i_OCSP_SERVICELOC
                0x00000000401e2920                i2d_OCSP_SERVICELOC
                0x00000000401e2934                OCSP_SERVICELOC_new
                0x00000000401e2948                OCSP_SERVICELOC_free
                0x00000000401e295c                X509_policy_tree_level_count
                0x00000000401e296f                X509_policy_tree_get0_level
                0x00000000401e2998                X509_policy_tree_get0_policies
                0x00000000401e29aa                X509_policy_tree_get0_user_policies
                0x00000000401e29c7                X509_policy_level_node_count
                0x00000000401e2a03                X509_policy_level_get0_node
                0x00000000401e2a30                X509_policy_node_get0_policy
                0x00000000401e2a45                X509_policy_node_get0_qualifiers
                0x00000000401e2a5a                X509_policy_node_get0_parent
                0x00000000401e2a8f                policy_node_cmp_new
                0x00000000401e2aa3                tree_find_sk
                0x00000000401e2ae4                level_find_node
                0x00000000401e2b5d                level_add_node
                0x00000000401e2c49                policy_node_free
                0x00000000401e2c58                policy_node_match
                0x00000000401e301e                UI_free
                0x00000000401e3061                UI_add_input_string
                0x00000000401e308a                UI_dup_input_string
                0x00000000401e311e                UI_add_verify_string
                0x00000000401e3148                UI_dup_verify_string
                0x00000000401e31dd                UI_add_input_boolean
                0x00000000401e31fd                UI_dup_input_boolean
                0x00000000401e3383                UI_add_info_string
                0x00000000401e33b2                UI_dup_info_string
                0x00000000401e342f                UI_add_error_string
                0x00000000401e345e                UI_dup_error_string
                0x00000000401e34db                UI_construct_prompt
                0x00000000401e35ff                UI_add_user_data
                0x00000000401e360c                UI_get0_user_data
                0x00000000401e3615                UI_process
                0x00000000401e3759                UI_ctrl
                0x00000000401e37e5                UI_get_ex_new_index
                0x00000000401e3808                UI_set_ex_data
                0x00000000401e381b                UI_get_ex_data
                0x00000000401e382e                UI_set_default_method
                0x00000000401e383a                UI_get_default_method
                0x00000000401e3869                UI_new_method
                0x00000000401e38f6                UI_new
                0x00000000401e390a                UI_get_method
                0x00000000401e3912                UI_set_method
                0x00000000401e391d                UI_create_method
                0x00000000401e396c                UI_destroy_method
                0x00000000401e3999                UI_method_set_opener
                0x00000000401e39b2                UI_method_set_writer
                0x00000000401e39cb                UI_method_set_flusher
                0x00000000401e39e4                UI_method_set_reader
                0x00000000401e39fd                UI_method_set_closer
                0x00000000401e3a16                UI_method_set_prompt_constructor
                0x00000000401e3a2f                UI_method_get_opener
                0x00000000401e3a43                UI_method_get_writer
                0x00000000401e3a57                UI_method_get_flusher
                0x00000000401e3a6b                UI_method_get_reader
                0x00000000401e3a7f                UI_method_get_closer
                0x00000000401e3a93                UI_method_get_prompt_constructor
                0x00000000401e3aa7                UI_get_string_type
                0x00000000401e3ab9                UI_get_input_flags
                0x00000000401e3acc                UI_get0_output_string
                0x00000000401e3ade                UI_get0_action_string
                0x00000000401e3b03                UI_get0_result_string
                0x00000000401e3b28                UI_get0_result
                0x00000000401e3bae                UI_get0_test_string
                0x00000000401e3bca                UI_get_result_minsize
                0x00000000401e3bed                UI_get_result_maxsize
                0x00000000401e3c10                UI_set_result
                0x00000000401e40a3                UI_OpenSSL
                0x00000000401e448c                d2i_BASIC_CONSTRAINTS
                0x00000000401e44a0                i2d_BASIC_CONSTRAINTS
                0x00000000401e44b4                BASIC_CONSTRAINTS_new
                0x00000000401e44c8                BASIC_CONSTRAINTS_free
                0x00000000401e45ff                i2v_ASN1_BIT_STRING
                0x00000000401e465a                v2i_ASN1_BIT_STRING
                0x00000000401e47d8                i2s_ASN1_ENUMERATED_TABLE
                0x00000000401e49a4                d2i_EXTENDED_KEY_USAGE
                0x00000000401e49b8                i2d_EXTENDED_KEY_USAGE
                0x00000000401e49cc                EXTENDED_KEY_USAGE_new
                0x00000000401e49e0                EXTENDED_KEY_USAGE_free
                0x00000000401e4cdc                BN_GF2m_add
                0x00000000401e4dd1                BN_GF2m_mod_arr
                0x00000000401e5032                BN_GF2m_mod_sqr_arr
                0x00000000401e51e9                BN_GF2m_mod_mul_arr
                0x00000000401e5485                BN_GF2m_mod_exp_arr
                0x00000000401e55af                BN_GF2m_mod_sqrt_arr
                0x00000000401e5650                BN_GF2m_mod_solve_quad_arr
                0x00000000401e5a06                BN_GF2m_poly2arr
                0x00000000401e5abc                BN_GF2m_mod
                0x00000000401e5b6f                BN_GF2m_mod_inv
                0x00000000401e5d2b                BN_GF2m_mod_mul
                0x00000000401e5dee                BN_GF2m_mod_div
                0x00000000401e5e86                BN_GF2m_mod_sqr
                0x00000000401e5f41                BN_GF2m_mod_exp
                0x00000000401e6004                BN_GF2m_mod_sqrt
                0x00000000401e60bf                BN_GF2m_mod_solve_quad
                0x00000000401e617a                BN_GF2m_arr2poly
                0x00000000401e61cc                BN_GF2m_mod_inv_arr
                0x00000000401e624f                BN_GF2m_mod_div_arr
                0x00000000401e640b                _CONF_get_section
                0x00000000401e6442                _CONF_get_section_values
                0x00000000401e645a                _CONF_add_string
                0x00000000401e64db                _CONF_get_string
                0x00000000401e656f                _CONF_new_data
                0x00000000401e65ba                _CONF_free_data
                0x00000000401e660f                _CONF_new_section
                0x00000000401e760e                NCONF_default
                0x00000000401e7618                NCONF_WIN32
                0x00000000401e7f0a                ec_GF2m_simple_mul
                0x00000000401e816b                ec_GF2m_precompute_mult
                0x00000000401e817a                ec_GF2m_have_precompute_mult
                0x00000000401e8189                codeend = .

.iplt           0x00000000401e8189        0x0 load address 0x00000000001e8189
 .iplt          0x00000000401e8189        0x0 output.o

.rodata         0x00000000401e81a0    0x30a6b load address 0x00000000001e81a0
 .rodata        0x00000000401e81a0    0x30a6b output.o
                0x00000000401eb058                as_passvm
                0x00000000401eb060                as_hphys
                0x00000000401f2e60                OSSL_DES_version
                0x00000000401f2ea0                OSSL_libdes_version
                0x00000000401f2f40                EVP_version
                0x00000000401f3060                IDEA_version
                0x00000000401f30a0                lh_version
                0x00000000401f36e0                MD4_version
                0x00000000401f3720                MD5_version
                0x00000000402002a0                PBKDF2PARAM_it
                0x0000000040200380                PBE2PARAM_it
                0x00000000402004a0                RC2_version
                0x00000000402005e0                RC4_version
                0x0000000040200620                RMD160_version
                0x0000000040201820                SHA1_version
                0x0000000040201960                SHA256_version
                0x0000000040201c20                SHA512_version
                0x0000000040201c60                SHA_version
                0x0000000040201ca0                STACK_version
                0x0000000040202040                ASN1_SET_ANY_it
                0x00000000402020c0                ASN1_SEQUENCE_ANY_it
                0x0000000040202140                ASN1_OCTET_STRING_NDEF_it
                0x0000000040202180                ASN1_FBOOLEAN_it
                0x00000000402021c0                ASN1_TBOOLEAN_it
                0x0000000040202200                ASN1_BOOLEAN_it
                0x0000000040202240                DIRECTORYSTRING_it
                0x0000000040202280                DISPLAYTEXT_it
                0x00000000402022c0                ASN1_PRINTABLE_it
                0x0000000040202300                ASN1_SEQUENCE_it
                0x0000000040202340                ASN1_ANY_it
                0x0000000040202380                ASN1_BMPSTRING_it
                0x00000000402023c0                ASN1_UNIVERSALSTRING_it
                0x0000000040202400                ASN1_VISIBLESTRING_it
                0x0000000040202440                ASN1_GENERALIZEDTIME_it
                0x0000000040202480                ASN1_UTCTIME_it
                0x00000000402024c0                ASN1_GENERALSTRING_it
                0x0000000040202500                ASN1_IA5STRING_it
                0x0000000040202540                ASN1_T61STRING_it
                0x0000000040202580                ASN1_PRINTABLESTRING_it
                0x00000000402025c0                ASN1_UTF8STRING_it
                0x0000000040202600                ASN1_OBJECT_it
                0x0000000040202640                ASN1_NULL_it
                0x0000000040202680                ASN1_OCTET_STRING_it
                0x00000000402026c0                ASN1_BIT_STRING_it
                0x0000000040202700                ASN1_ENUMERATED_it
                0x0000000040202740                ASN1_INTEGER_it
                0x0000000040202780                X509_ALGORS_it
                0x0000000040202800                X509_ALGOR_it
                0x00000000402028a0                X509_SIG_it
                0x0000000040203d00                ASN1_version
                0x0000000040203d40                BF_version
                0x0000000040204fa0                BN_version
                0x0000000040205000                CAST_version
                0x00000000402050c0                CAST_S_table7
                0x00000000402054c0                CAST_S_table6
                0x00000000402058c0                CAST_S_table5
                0x0000000040205cc0                CAST_S_table4
                0x00000000402060c0                CAST_S_table3
                0x00000000402064c0                CAST_S_table2
                0x00000000402068c0                CAST_S_table1
                0x0000000040206cc0                CAST_S_table0
                0x0000000040207580                DES_SPtrans
                0x0000000040208760                RAND_version
                0x00000000402087a0                PBEPARAM_it
                0x0000000040208840                RSA_version
                0x0000000040208880                X509_CRL_it
                0x0000000040208980                X509_CRL_INFO_it
                0x0000000040208b20                X509_REVOKED_it
                0x0000000040208be0                X509_EXTENSIONS_it
                0x0000000040208c60                X509_EXTENSION_it
                0x0000000040208d20                X509_NAME_it
                0x0000000040208d60                x509_name_ff
                0x0000000040208da0                X509_NAME_INTERNAL_it
                0x0000000040208e20                X509_NAME_ENTRIES_it
                0x0000000040208ea0                X509_NAME_ENTRY_it
                0x0000000040208f40                X509_it
                0x0000000040209040                X509_CINF_it
                0x0000000040209260                X509_CERT_PAIR_it
                0x0000000040209300                X509_CERT_AUX_it
                0x00000000402094e0                ASN1_TIME_it
                0x00000000402096c0                DSAPublicKey_it
                0x00000000402097a0                dsa_pub_internal_it
                0x0000000040209880                DSAparams_it
                0x0000000040209980                DSAPrivateKey_it
                0x0000000040209b00                DSA_SIG_it
                0x0000000040209be0                DSA_version
                0x0000000040209c20                ECDSA_SIG_it
                0x0000000040209cc0                ECDSA_version
                0x0000000040209d00                PKCS12_AUTHSAFES_it
                0x0000000040209d80                PKCS12_SAFEBAGS_it
                0x0000000040209e00                PKCS12_SAFEBAG_it
                0x000000004020a060                PKCS12_BAGS_it
                0x000000004020a220                PKCS12_MAC_DATA_it
                0x000000004020a2e0                PKCS12_it
                0x000000004020a3a0                PKCS8_PRIV_KEY_INFO_it
                0x000000004020a4c0                PKCS7_ATTR_VERIFY_it
                0x000000004020a540                PKCS7_ATTR_SIGN_it
                0x000000004020a5c0                PKCS7_DIGEST_it
                0x000000004020a6a0                PKCS7_ENCRYPT_it
                0x000000004020a740                PKCS7_SIGN_ENVELOPE_it
                0x000000004020a8a0                PKCS7_ENC_CONTENT_it
                0x000000004020a960                PKCS7_RECIP_INFO_it
                0x000000004020aa80                PKCS7_ENVELOPE_it
                0x000000004020ab40                PKCS7_ISSUER_AND_SERIAL_it
                0x000000004020abe0                PKCS7_SIGNER_INFO_it
                0x000000004020ad80                PKCS7_SIGNED_it
                0x000000004020aec0                PKCS7_it
                0x000000004020b220                AUTHORITY_KEYID_it
                0x000000004020b2e0                NOTICEREF_it
                0x000000004020b380                USERNOTICE_it
                0x000000004020b420                POLICYQUALINFO_it
                0x000000004020b5a0                POLICYINFO_it
                0x000000004020b640                CERTIFICATEPOLICIES_it
                0x000000004020b6c0                v3_cpols
                0x000000004020b740                v3_idp
                0x000000004020b7c0                ISSUING_DIST_POINT_it
                0x000000004020b900                CRL_DIST_POINTS_it
                0x000000004020b980                DIST_POINT_it
                0x000000004020ba40                DIST_POINT_NAME_it
                0x000000004020bc20                v3_freshest_crl
                0x000000004020bca0                v3_crld
                0x000000004020be00                GENERAL_NAMES_it
                0x000000004020be80                GENERAL_NAME_it
                0x000000004020c040                EDIPARTYNAME_it
                0x000000004020c0e0                OTHERNAME_it
                0x000000004020c180                NAME_CONSTRAINTS_it
                0x000000004020c220                GENERAL_SUBTREE_it
                0x000000004020c2e0                v3_name_constraints
                0x000000004020c360                POLICY_CONSTRAINTS_it
                0x000000004020c400                v3_policy_constraints
                0x000000004020c480                POLICY_MAPPINGS_it
                0x000000004020c500                POLICY_MAPPING_it
                0x000000004020c5a0                v3_policy_mappings
                0x000000004020c660                X509_version
                0x000000004020c7c0                X509_ATTRIBUTE_it
                0x000000004020c860                X509_ATTRIBUTE_SET_it
                0x000000004020c900                CBIGNUM_it
                0x000000004020c940                BIGNUM_it
                0x000000004020c980                ZLONG_it
                0x000000004020c9c0                LONG_it
                0x000000004020ca00                X509_PUBKEY_it
                0x000000004020cae0                X509_REQ_it
                0x000000004020cbe0                X509_REQ_INFO_it
                0x000000004020cd00                NETSCAPE_SPKI_it
                0x000000004020cdc0                NETSCAPE_SPKAC_it
                0x000000004020ce60                X509_VAL_it
                0x000000004020d080                rsa_pkey_meth
                0x000000004020d160                dh_pkey_meth
                0x000000004020d2a0                dsa_pkey_meth
                0x000000004020d380                ec_pkey_meth
                0x000000004020d460                hmac_pkey_meth
                0x000000004020d580                rsa_asn1_meths
                0x000000004020d700                dh_asn1_meth
                0x000000004020d7c0                dsa_asn1_meths
                0x000000004020db60                eckey_asn1_meth
                0x000000004020dc20                hmac_asn1_meth
                0x000000004020dd80                CMS_Receipt_it
                0x000000004020de60                CMS_ReceiptRequest_it
                0x000000004020df20                CMS_ReceiptsFrom_it
                0x000000004020dfc0                CMS_Attributes_Verify_it
                0x000000004020e040                CMS_Attributes_Sign_it
                0x000000004020e0c0                CMS_ContentInfo_it
                0x000000004020e380                CMS_CompressedData_it
                0x000000004020e440                CMS_AuthenticatedData_it
                0x000000004020e600                CMS_EncryptedData_it
                0x000000004020e6c0                CMS_DigestedData_it
                0x000000004020e7a0                CMS_EnvelopedData_it
                0x000000004020e8c0                CMS_RecipientInfo_it
                0x000000004020ea20                CMS_OtherRecipientInfo_it
                0x000000004020eac0                CMS_PasswordRecipientInfo_it
                0x000000004020eba0                CMS_KEKRecipientInfo_it
                0x000000004020ec80                CMS_KEKIdentifier_it
                0x000000004020ed40                CMS_KeyAgreeRecipientInfo_it
                0x000000004020ee60                CMS_OriginatorIdentifierOrKey_it
                0x000000004020ef20                CMS_OriginatorPublicKey_it
                0x000000004020efc0                CMS_RecipientEncryptedKey_it
                0x000000004020f060                CMS_KeyAgreeRecipientIdentifier_it
                0x000000004020f100                CMS_RecipientKeyIdentifier_it
                0x000000004020f1c0                CMS_OtherKeyAttribute_it
                0x000000004020f260                CMS_KeyTransRecipientInfo_it
                0x000000004020f340                CMS_EncryptedContentInfo_it
                0x000000004020f400                CMS_OriginatorInfo_it
                0x000000004020f4a0                CMS_SignedData_it
                0x000000004020f5e0                CMS_RevocationInfoChoice_it
                0x000000004020f680                CMS_OtherRevocationInfoFormat_it
                0x000000004020f720                CMS_SignerInfo_it
                0x000000004020f8c0                CMS_EncapsulatedContentInfo_it
                0x000000004020f960                CMS_SignerIdentifier_it
                0x000000004020fa00                CMS_CertificateChoices_it
                0x000000004020fb20                CMS_OtherCertificateFormat_it
                0x000000004020fbc0                CMS_IssuerAndSerialNumber_it
                0x0000000040210240                DHparams_it
                0x0000000040210340                DH_version
                0x0000000040210380                EC_PRIVATEKEY_it
                0x0000000040210460                ECPKPARAMETERS_it
                0x0000000040210520                ECPARAMETERS_it
                0x0000000040210660                X9_62_CURVE_it
                0x0000000040210720                X9_62_FIELDID_it
                0x00000000402108a0                X9_62_CHARACTERISTIC_TWO_it
                0x0000000040210a80                X9_62_PENTANOMIAL_it
                0x00000000402144c0                ECDH_version
                0x0000000040214a00                PEM_version
                0x0000000040214a40                RSAPublicKey_it
                0x0000000040214b20                RSAPrivateKey_it
                0x0000000040214e00                v3_alt
                0x0000000040214f40                AUTHORITY_INFO_ACCESS_it
                0x0000000040214fc0                ACCESS_DESCRIPTION_it
                0x0000000040215060                v3_sinfo
                0x00000000402150e0                v3_info
                0x0000000040215160                v3_ocsp_serviceloc
                0x00000000402151e0                v3_ocsp_nocheck
                0x0000000040215260                v3_ocsp_nonce
                0x00000000402152e0                v3_crl_hold
                0x0000000040215360                v3_crl_invdate
                0x00000000402153e0                v3_ocsp_acutoff
                0x0000000040215460                v3_ocsp_crlid
                0x00000000402154e0                v3_pci
                0x0000000040215560                PROXY_CERT_INFO_EXTENSION_it
                0x0000000040215600                PROXY_POLICY_it
                0x00000000402156a0                PKEY_USAGE_PERIOD_it
                0x0000000040215740                v3_pkey_usage_period
                0x00000000402159a0                v3_skey_id
                0x0000000040215a20                SXNET_it
                0x0000000040215ac0                SXNETID_it
                0x0000000040215b60                v3_sxnet
                0x0000000040217540                CONF_version
                0x00000000402176c0                OCSP_SERVICELOC_it
                0x0000000040217760                OCSP_CRLID_it
                0x0000000040217820                OCSP_BASICRESP_it
                0x0000000040217900                OCSP_RESPDATA_it
                0x0000000040217a20                OCSP_SINGLERESP_it
                0x0000000040217b40                OCSP_CERTSTATUS_it
                0x0000000040217c00                OCSP_REVOKEDINFO_it
                0x0000000040217ca0                OCSP_RESPID_it
                0x0000000040217d40                OCSP_RESPONSE_it
                0x0000000040217de0                OCSP_RESPBYTES_it
                0x0000000040217e80                OCSP_REQUEST_it
                0x0000000040217f20                OCSP_REQINFO_it
                0x0000000040218000                OCSP_ONEREQ_it
                0x00000000402180a0                OCSP_CERTID_it
                0x0000000040218180                OCSP_SIGNATURE_it
                0x0000000040218240                v3_akey_id
                0x00000000402182c0                BASIC_CONSTRAINTS_it
                0x0000000040218360                v3_bcons
                0x00000000402183e0                v3_key_usage
                0x0000000040218460                v3_nscert
                0x00000000402184e0                v3_crl_reason
                0x0000000040218560                EXTENDED_KEY_USAGE_it
                0x00000000402185e0                v3_ocsp_accresp
                0x0000000040218660                v3_ext_ku
                0x00000000402186e0                v3_ns_ia5_list
                0x0000000040218a20                v3_inhibit_anyp
                0x0000000040218aa0                v3_delta_crl
                0x0000000040218b20                v3_crl_num
                0x0000000040218be0                CONF_def_version

.rodata.str1.8  0x0000000040218c10     0x845b load address 0x0000000000218c10
 .rodata.str1.8
                0x0000000040218c10     0x845b output.o
                                       0x867b (size before relaxing)

.rodata.str1.1  0x000000004022106b    0x110d2 load address 0x000000000022106b
 .rodata.str1.1
                0x000000004022106b    0x110d2 output.o
                                      0x12ea9 (size before relaxing)

.rodata.cst8    0x0000000040232140        0x8 load address 0x0000000000232140
 .rodata.cst8   0x0000000040232140        0x8 output.o

.rodata.cst4    0x0000000040232148        0x8 load address 0x0000000000232148
 .rodata.cst4   0x0000000040232148        0x8 output.o

.eh_frame       0x0000000040232150    0x299ec load address 0x0000000000232150
 .eh_frame      0x0000000040232150    0x299ec output.o
                                      0x2ca38 (size before relaxing)

.rela.dyn       0x000000004025bb40        0x0 load address 0x000000000025bb40
 .rela.got      0x000000004025bb40        0x0 output.o
 .rela.iplt     0x000000004025bb40        0x0 output.o
 .rela.text     0x000000004025bb40        0x0 output.o
 .rela.entry.text
                0x000000004025bb40        0x0 output.o

.data           0x000000004025c000    0x50dd0 load address 0x000000000025c000
                0x000000004025c000                data = .
 *(.data)
 .data          0x000000004025c000    0x5030b output.o
                0x000000004025c010                uefi_memory_map_size
                0x000000004025c060                config
                0x000000004026cc28                vmm_start_phys
                0x000000004026cc2c                use_pae
                0x000000004026ce50                savemsr_index
                0x0000000040272000                calluefi
                0x0000000040272111                guest_int0x15_hook
                0x000000004027212e                guest_int0x15_e801_fake_ax
                0x0000000040272131                guest_int0x15_e801_fake_bx
                0x0000000040272142                guest_int0x15_orig
                0x0000000040272157                guest_int0x15_e820_data_minus0x18
                0x000000004027215f                guest_int0x15_e820_end
                0x0000000040272185                guest_int0x15_hook_end
                0x0000000040273189                wakeup_entry_start
                0x0000000040273192                wakeup_entry_addr
                0x00000000402731b8                wakeup_entry_cr4
                0x00000000402731c1                wakeup_entry_cr3
                0x00000000402731ca                wakeup_entry_cr0
                0x00000000402731d9                wakeup_entry_gdtr
                0x00000000402731e3                wakeup_entry_end
                0x0000000040273460                NTFS_MetaFile_ConvertToNonresident
                0x0000000040273490                NTFS_MetaFile_Bitmap
                0x00000000402734a0                NTFS_MetaFile_MFT
                0x00000000402734c0                win_entropy_excluded_processes
                0x0000000040273500                win_excluded_processes
                0x0000000040273530                test_start
                0x0000000040273534                usb_log_level
                0x000000004027a920                rand_ssleay_meth
                0x000000004027ac40                default_pctx
                0x00000000402ac310                . = ALIGN (0x8)
 *fill*         0x00000000402ac30b        0x5 
                0x00000000402ac310                __initfunc_start = .
 *(.initfunc)
 .initfunc      0x00000000402ac310      0x960 output.o
                0x00000000402ac310                __initfunc_acpi_init_pass
                0x00000000402ac328                __initfunc_acpi_init_paral
                0x00000000402ac340                __initfunc_acpi_init_global
                0x00000000402ac358                __initfunc_beep_init_msg
                0x00000000402ac370                __initfunc_cache_init_pass
                0x00000000402ac388                __initfunc_cache_init_vcpu
                0x00000000402ac3a0                __initfunc_update_mtrr_and_pat
                0x00000000402ac3b8                __initfunc_cache_init_pcpu
                0x00000000402ac3d0                __initfunc_callrealmode_panic
                0x00000000402ac3e8                __initfunc_callrealmode_init_global
                0x00000000402ac400                __initfunc_cpu_mmu_spt_init_pcpu
                0x00000000402ac418                __initfunc_cpu_mmu_spt_init_global
                0x00000000402ac430                __initfunc_cpuid_init
                0x00000000402ac448                __initfunc_cpuid_pass_init
                0x00000000402ac460                __initfunc_exint_pass_init
                0x00000000402ac478                __initfunc_gmm_pass_init
                0x00000000402ac490                __initfunc_install_int0x15_hook
                0x00000000402ac4a8                __initfunc_int_wakeup
                0x00000000402ac4c0                __initfunc_int_init_global
                0x00000000402ac4d8                __initfunc_io_io_init
                0x00000000402ac4f0                __initfunc_setiohooks
                0x00000000402ac508                __initfunc_io_iopass_init
                0x00000000402ac520                __initfunc_keyboard_init_msg
                0x00000000402ac538                __initfunc_localapic_init2
                0x00000000402ac550                __initfunc_localapic_init
                0x00000000402ac568                __initfunc_get_shiftflags
                0x00000000402ac580                __initfunc_copy_minios
                0x00000000402ac598                __initfunc_print_boot_msg
                0x00000000402ac5b0                __initfunc_debug_on_shift_key
                0x00000000402ac5c8                __initfunc_wait_for_create_pass_vm
                0x00000000402ac5e0                __initfunc_create_pass_vm
                0x00000000402ac5f8                __initfunc_virtualization_init_pcpu
                0x00000000402ac610                __initfunc_unmap_user_area
                0x00000000402ac628                __initfunc_mm_init_global
                0x00000000402ac640                __initfunc_mmio_debug
                0x00000000402ac658                __initfunc_mmio_init
                0x00000000402ac670                __initfunc_msg_init_global
                0x00000000402ac688                __initfunc_msr_init
                0x00000000402ac6a0                __initfunc_msr_pass_init
                0x00000000402ac6b8                __initfunc_nmi_pass_init
                0x00000000402ac6d0                __initfunc_panic_init_pcpu
                0x00000000402ac6e8                __initfunc_panic_init_msg
                0x00000000402ac700                __initfunc_panic_init_global3
                0x00000000402ac718                __initfunc_panic_init_global
                0x00000000402ac730                __initfunc_printf_init_global
                0x00000000402ac748                __initfunc_process_wakeup
                0x00000000402ac760                __initfunc_process_init_ap
                0x00000000402ac778                __initfunc_process_init_global
                0x00000000402ac790                __initfunc_random_init_config0
                0x00000000402ac7a8                __initfunc_random_init_global
                0x00000000402ac7c0                __initfunc_reboot_init_msg
                0x00000000402ac7d8                __initfunc_segment_init_global
                0x00000000402ac7f0                __initfunc_serial_init_msg
                0x00000000402ac808                __initfunc_sleep_init_msg
                0x00000000402ac820                __initfunc_sleep_init_global
                0x00000000402ac838                __initfunc_svm_panic
                0x00000000402ac850                __initfunc_initipi_pass_init
                0x00000000402ac868                __initfunc_thread_init_msg
                0x00000000402ac880                __initfunc_thread_init_pcpu
                0x00000000402ac898                __initfunc_thread_init_global
                0x00000000402ac8b0                __initfunc_time_wakeup
                0x00000000402ac8c8                __initfunc_time_init_msg
                0x00000000402ac8e0                __initfunc_time_init_dbsp
                0x00000000402ac8f8                __initfunc_time_init_pcpu
                0x00000000402ac910                __initfunc_time_init_global_status
                0x00000000402ac928                __initfunc_time_init_global
                0x00000000402ac940                __initfunc_timer_init_global
                0x00000000402ac958                __initfunc_tty_init_msg
                0x00000000402ac970                __initfunc_tty_init_global2
                0x00000000402ac988                __initfunc_tty_init_global
                0x00000000402ac9a0                __initfunc_vcpu_init_global
                0x00000000402ac9b8                __initfunc_vga_init
                0x00000000402ac9d0                __initfunc_vmmcall_init
                0x00000000402ac9e8                __initfunc_vmmcall_boot_init
                0x00000000402aca00                __initfunc_vmmcall_dbgsh_init_global
                0x00000000402aca18                __initfunc_vmmcall_dbgsh_init
                0x00000000402aca30                __initfunc_vmmcall_status_init
                0x00000000402aca48                __initfunc_vmmcall_status_init_global
                0x00000000402aca60                __initfunc_vramwrite_init_bsp
                0x00000000402aca78                __initfunc_vramwrite_init_msg
                0x00000000402aca90                __initfunc_vt_register_status_callback
                0x00000000402acaa8                __initfunc_vt_panic
                0x00000000402acac0                __initfunc_xsetbv_init
                0x00000000402acad8                __initfunc_xsetbv_pass_init
                0x00000000402acaf0                __initfunc_uefi_param_ext_init
                0x00000000402acb08                __initfunc_nmi_init
                0x00000000402acb20                __initfunc_nmi_init_pcpu
                0x00000000402acb38                __initfunc_initipi_init
                0x00000000402acb50                __initfunc_initipi_init_pcpu
                0x00000000402acb68                __initfunc_mmioclr_init
                0x00000000402acb80                __initfunc_core_init
                0x00000000402acb98                __initfunc_iommu_setup
                0x00000000402acbb0                __initfunc_pci_conceal_init
                0x00000000402acbc8                __initfunc_pci_init
                0x00000000402acbe0                __initfunc_pci_match_compat_init
                0x00000000402acbf8                __initfunc_uhci_init
                0x00000000402acc10                __initfunc_ehci_init
                0x00000000402acc28                __initfunc_storage_kernel_init
                0x00000000402acc40                __initfunc_storage_io_initfunc
                0x00000000402acc58                __initfunc_netapi_init
                0x00000000402acc70                __initfunc_end = .
                0x00000000402acc70                __process_builtin = .
 *(.processes)
 .processes     0x00000000402acc70      0x160 output.o
                0x00000000402acdd0                __process_builtin_end = .
                0x00000000402acdd0                dataend = .

.got            0x00000000402acdd0        0x0 load address 0x00000000002acdd0
 .got           0x00000000402acdd0        0x0 output.o

.got.plt        0x00000000402acdd0        0x0 load address 0x00000000002acdd0
 .got.plt       0x00000000402acdd0        0x0 output.o

.igot.plt       0x00000000402acdd0        0x0 load address 0x00000000002acdd0
 .igot.plt      0x00000000402acdd0        0x0 output.o

.bss            0x00000000402ad000   0xabc000 load address 0x00000000002ad000
                0x00000000402ad000                bss = .
 *(.bss)
 .bss           0x00000000402ad000   0xabb388 output.o
                0x00000000402ad130                acpi_dsdt_system_state
                0x00000000402ad150                num_of_processors
                0x00000000402ad1c0                uefi_memory_map_descsize
                0x00000000402ad1e0                uefi_memory_map_data
                0x00000000402b1860                prohibit_iccard_init
                0x00000000402b5000                uefi_mmio_space
                0x00000000402b5008                vmmsize
                0x00000000402b5010                memorysize
                0x00000000402b5018                e801_fake_bx
                0x00000000402b501a                e801_fake_ax
                0x000000004053eaa0                pcpu_default
                0x000000004055e000                uefi_booted
                0x0000000040560220                handler_descriptor_lock
                0x0000000040560240                handler_descriptor
                0x0000000040560448                drhd_list_head
                0x0000000040560450                iommu_detected
                0x0000000040560460                num_dom
                0x0000000040560480                dom_io
                0x0000000040560c80                clflush_size
                0x0000000040560ca0                pci_config_mmio_data_head
                0x0000000040560ca8                pci_virtual_driver_list_head
                0x0000000040560cb0                pci_driver_list_head
                0x0000000040560cb8                pci_device_list_head
                0x0000000040560cc0                pci_msi_dummyaddr
                0x0000000040561740                uhci_monitor_boost_hc
                0x0000000040561760                patternlist
                0x0000000040587730                entropy_trigger
                0x0000000040587734                sector2048count
                0x0000000040587740                SectorPageBitmap
                0x0000000040d28944                ParseMFT_trigger
                0x0000000040d28948                byte_count_trigger
                0x0000000040d2894c                bitmap_compare_trigger
                0x0000000040d28950                bitmap_check_trigger
                0x0000000040d28954                bitmap_load_trigger
                0x0000000040d28958                bitmap_inited
                0x0000000040d28960                bitmap_offset
                0x0000000040d28968                bitmap_lba
                0x0000000040d28980                bitmap
                0x0000000040d65a10                blacklist_count
                0x0000000040d65a20                win_high_entropylist
                0x0000000040d66000                win_processe_blacklist
                0x0000000040d665e0                kaslr_offset
                0x0000000040d665e8                entropy_length
                0x0000000040d665f0                ProcessForPattern
                0x0000000040d66600                ProcessForEntropyCalc
                0x0000000040d66610                file_lba_end
                0x0000000040d66614                file_lba_start
                0x0000000040d66618                wake_up_decoder
                0x0000000040d6661c                new_round
                0x0000000040d66620                inode_in_qtd
                0x0000000040d66640                byte_count
                0x0000000040d66e40                init_task_info
                0x0000000040d66ee0                init_task
                0x0000000040d66ee8                usb_hc_list_head
                0x0000000040d66ef0                usb_busses_head
                0x0000000040d66f98                chelp_inited
                0x0000000040d67b68                cleanse_ctr
                0x0000000040d67bc8                obj_cleanup_defer
                0x0000000040d67be0                _shadow_DES_check_key
                0x0000000040d67cb0                sigx_app
                0x0000000040d67cb8                sig_app
                0x0000000040d67d40                OPENSSL_NONPIC_relocated
                0x0000000040d67d48                OPENSSL_ia32cap_P
                0x0000000040d682a0                app_pkey_methods
 *(COMMON)
                0x0000000040d69000                . = ALIGN (0x1000)
 *fill*         0x0000000040d68388      0xc78 
                0x0000000040d69000                end = .

/DISCARD/
 *(.gomi)
LOAD output.o
OUTPUT(bitvisor.elf elf64-x86-64)

.comment        0x0000000000000000       0x2b
 .comment       0x0000000000000000       0x2b output.o
                                       0x5514 (size before relaxing)

.note.GNU-stack
                0x0000000000000000        0x0
 .note.GNU-stack
                0x0000000000000000        0x0 output.o

.debug_aranges  0x0000000000000000     0x5e90
 .debug_aranges
                0x0000000000000000     0x5e90 output.o

.debug_info     0x0000000000000000   0x325b82
 .debug_info    0x0000000000000000   0x325b82 output.o

.debug_abbrev   0x0000000000000000    0x57c65
 .debug_abbrev  0x0000000000000000    0x57c65 output.o

.debug_line     0x0000000000000000    0xad07c
 .debug_line    0x0000000000000000    0xad07c output.o

.debug_str      0x0000000000000000    0x2cbff
 .debug_str     0x0000000000000000    0x2cbff output.o
                                     0x13f87a (size before relaxing)

.debug_line_str
                0x0000000000000000     0x578c
 .debug_line_str
                0x0000000000000000     0x578c output.o
                                      0x23f91 (size before relaxing)

.debug_loclists
                0x0000000000000000   0x11051d
 .debug_loclists
                0x0000000000000000   0x11051d output.o

.debug_rnglists
                0x0000000000000000     0x4d8a
 .debug_rnglists
                0x0000000000000000     0x4d8a output.o

Cross Reference Table

Symbol                                            File
ACCESS_DESCRIPTION_free                           output.o
ACCESS_DESCRIPTION_it                             output.o
ACCESS_DESCRIPTION_new                            output.o
AES_cbc_encrypt                                   output.o
AES_cfb128_encrypt                                output.o
AES_cfb1_encrypt                                  output.o
AES_cfb8_encrypt                                  output.o
AES_decrypt                                       output.o
AES_ecb_encrypt                                   output.o
AES_encrypt                                       output.o
AES_ofb128_encrypt                                output.o
AES_set_decrypt_key                               output.o
AES_set_encrypt_key                               output.o
AES_unwrap_key                                    output.o
AES_wrap_key                                      output.o
ASN1_ANY_it                                       output.o
ASN1_BIT_STRING_check                             output.o
ASN1_BIT_STRING_free                              output.o
ASN1_BIT_STRING_get_bit                           output.o
ASN1_BIT_STRING_it                                output.o
ASN1_BIT_STRING_new                               output.o
ASN1_BIT_STRING_set                               output.o
ASN1_BIT_STRING_set_bit                           output.o
ASN1_BMPSTRING_free                               output.o
ASN1_BMPSTRING_it                                 output.o
ASN1_BMPSTRING_new                                output.o
ASN1_BOOLEAN_it                                   output.o
ASN1_ENUMERATED_free                              output.o
ASN1_ENUMERATED_get                               output.o
ASN1_ENUMERATED_it                                output.o
ASN1_ENUMERATED_new                               output.o
ASN1_ENUMERATED_set                               output.o
ASN1_ENUMERATED_to_BN                             output.o
ASN1_FBOOLEAN_it                                  output.o
ASN1_GENERALIZEDTIME_adj                          output.o
ASN1_GENERALIZEDTIME_check                        output.o
ASN1_GENERALIZEDTIME_free                         output.o
ASN1_GENERALIZEDTIME_it                           output.o
ASN1_GENERALIZEDTIME_new                          output.o
ASN1_GENERALIZEDTIME_print                        output.o
ASN1_GENERALIZEDTIME_set                          output.o
ASN1_GENERALIZEDTIME_set_string                   output.o
ASN1_GENERALSTRING_free                           output.o
ASN1_GENERALSTRING_it                             output.o
ASN1_GENERALSTRING_new                            output.o
ASN1_IA5STRING_free                               output.o
ASN1_IA5STRING_it                                 output.o
ASN1_IA5STRING_new                                output.o
ASN1_INTEGER_cmp                                  output.o
ASN1_INTEGER_dup                                  output.o
ASN1_INTEGER_free                                 output.o
ASN1_INTEGER_get                                  output.o
ASN1_INTEGER_it                                   output.o
ASN1_INTEGER_new                                  output.o
ASN1_INTEGER_set                                  output.o
ASN1_INTEGER_to_BN                                output.o
ASN1_NULL_free                                    output.o
ASN1_NULL_it                                      output.o
ASN1_NULL_new                                     output.o
ASN1_OBJECT_create                                output.o
ASN1_OBJECT_free                                  output.o
ASN1_OBJECT_it                                    output.o
ASN1_OBJECT_new                                   output.o
ASN1_OCTET_STRING_NDEF_it                         output.o
ASN1_OCTET_STRING_cmp                             output.o
ASN1_OCTET_STRING_dup                             output.o
ASN1_OCTET_STRING_free                            output.o
ASN1_OCTET_STRING_it                              output.o
ASN1_OCTET_STRING_new                             output.o
ASN1_OCTET_STRING_set                             output.o
ASN1_PCTX_free                                    output.o
ASN1_PCTX_get_cert_flags                          output.o
ASN1_PCTX_get_flags                               output.o
ASN1_PCTX_get_nm_flags                            output.o
ASN1_PCTX_get_oid_flags                           output.o
ASN1_PCTX_get_str_flags                           output.o
ASN1_PCTX_new                                     output.o
ASN1_PCTX_set_cert_flags                          output.o
ASN1_PCTX_set_flags                               output.o
ASN1_PCTX_set_nm_flags                            output.o
ASN1_PCTX_set_oid_flags                           output.o
ASN1_PCTX_set_str_flags                           output.o
ASN1_PRINTABLESTRING_free                         output.o
ASN1_PRINTABLESTRING_it                           output.o
ASN1_PRINTABLESTRING_new                          output.o
ASN1_PRINTABLE_free                               output.o
ASN1_PRINTABLE_it                                 output.o
ASN1_PRINTABLE_new                                output.o
ASN1_PRINTABLE_type                               output.o
ASN1_SEQUENCE_ANY_it                              output.o
ASN1_SEQUENCE_it                                  output.o
ASN1_SET_ANY_it                                   output.o
ASN1_STRING_TABLE_add                             output.o
ASN1_STRING_TABLE_cleanup                         output.o
ASN1_STRING_TABLE_get                             output.o
ASN1_STRING_cmp                                   output.o
ASN1_STRING_copy                                  output.o
ASN1_STRING_data                                  output.o
ASN1_STRING_dup                                   output.o
ASN1_STRING_free                                  output.o
ASN1_STRING_get_default_mask                      output.o
ASN1_STRING_length                                output.o
ASN1_STRING_length_set                            output.o
ASN1_STRING_new                                   output.o
ASN1_STRING_print                                 output.o
ASN1_STRING_print_ex                              output.o
ASN1_STRING_set                                   output.o
ASN1_STRING_set0                                  output.o
ASN1_STRING_set_by_NID                            output.o
ASN1_STRING_set_default_mask                      output.o
ASN1_STRING_set_default_mask_asc                  output.o
ASN1_STRING_to_UTF8                               output.o
ASN1_STRING_type                                  output.o
ASN1_STRING_type_new                              output.o
ASN1_T61STRING_free                               output.o
ASN1_T61STRING_it                                 output.o
ASN1_T61STRING_new                                output.o
ASN1_TBOOLEAN_it                                  output.o
ASN1_TIME_adj                                     output.o
ASN1_TIME_check                                   output.o
ASN1_TIME_free                                    output.o
ASN1_TIME_it                                      output.o
ASN1_TIME_new                                     output.o
ASN1_TIME_print                                   output.o
ASN1_TIME_set                                     output.o
ASN1_TIME_set_string                              output.o
ASN1_TIME_to_generalizedtime                      output.o
ASN1_TYPE_cmp                                     output.o
ASN1_TYPE_free                                    output.o
ASN1_TYPE_get                                     output.o
ASN1_TYPE_get_int_octetstring                     output.o
ASN1_TYPE_get_octetstring                         output.o
ASN1_TYPE_new                                     output.o
ASN1_TYPE_set                                     output.o
ASN1_TYPE_set1                                    output.o
ASN1_TYPE_set_int_octetstring                     output.o
ASN1_TYPE_set_octetstring                         output.o
ASN1_UNIVERSALSTRING_free                         output.o
ASN1_UNIVERSALSTRING_it                           output.o
ASN1_UNIVERSALSTRING_new                          output.o
ASN1_UNIVERSALSTRING_to_string                    output.o
ASN1_UTCTIME_adj                                  output.o
ASN1_UTCTIME_check                                output.o
ASN1_UTCTIME_cmp_time_t                           output.o
ASN1_UTCTIME_free                                 output.o
ASN1_UTCTIME_it                                   output.o
ASN1_UTCTIME_new                                  output.o
ASN1_UTCTIME_print                                output.o
ASN1_UTCTIME_set                                  output.o
ASN1_UTCTIME_set_string                           output.o
ASN1_UTF8STRING_free                              output.o
ASN1_UTF8STRING_it                                output.o
ASN1_UTF8STRING_new                               output.o
ASN1_VISIBLESTRING_free                           output.o
ASN1_VISIBLESTRING_it                             output.o
ASN1_VISIBLESTRING_new                            output.o
ASN1_bn_print                                     output.o
ASN1_check_infinite_end                           output.o
ASN1_const_check_infinite_end                     output.o
ASN1_d2i_bio                                      output.o
ASN1_digest                                       output.o
ASN1_dup                                          output.o
ASN1_generate_nconf                               output.o
ASN1_generate_v3                                  output.o
ASN1_get_object                                   output.o
ASN1_i2d_bio                                      output.o
ASN1_item_d2i                                     output.o
ASN1_item_d2i_bio                                 output.o
ASN1_item_digest                                  output.o
ASN1_item_dup                                     output.o
ASN1_item_ex_d2i                                  output.o
ASN1_item_ex_free                                 output.o
ASN1_item_ex_i2d                                  output.o
ASN1_item_ex_new                                  output.o
ASN1_item_free                                    output.o
ASN1_item_i2d                                     output.o
ASN1_item_i2d_bio                                 output.o
ASN1_item_ndef_i2d                                output.o
ASN1_item_new                                     output.o
ASN1_item_pack                                    output.o
ASN1_item_print                                   output.o
ASN1_item_sign                                    output.o
ASN1_item_unpack                                  output.o
ASN1_item_verify                                  output.o
ASN1_mbstring_copy                                output.o
ASN1_mbstring_ncopy                               output.o
ASN1_object_size                                  output.o
ASN1_pack_string                                  output.o
ASN1_parse                                        output.o
ASN1_parse_dump                                   output.o
ASN1_primitive_free                               output.o
ASN1_primitive_new                                output.o
ASN1_put_eoc                                      output.o
ASN1_put_object                                   output.o
ASN1_seq_pack                                     output.o
ASN1_seq_unpack                                   output.o
ASN1_sign                                         output.o
ASN1_tag2bit                                      output.o
ASN1_tag2str                                      output.o
ASN1_template_d2i                                 output.o
ASN1_template_free                                output.o
ASN1_template_i2d                                 output.o
ASN1_template_new                                 output.o
ASN1_unpack_string                                output.o
ASN1_verify                                       output.o
ASN1_version                                      output.o
AUTHORITY_INFO_ACCESS_free                        output.o
AUTHORITY_INFO_ACCESS_it                          output.o
AUTHORITY_INFO_ACCESS_new                         output.o
AUTHORITY_KEYID_free                              output.o
AUTHORITY_KEYID_it                                output.o
AUTHORITY_KEYID_new                               output.o
BASIC_CONSTRAINTS_free                            output.o
BASIC_CONSTRAINTS_it                              output.o
BASIC_CONSTRAINTS_new                             output.o
BF_cbc_encrypt                                    output.o
BF_cfb64_encrypt                                  output.o
BF_decrypt                                        output.o
BF_ecb_encrypt                                    output.o
BF_encrypt                                        output.o
BF_ofb64_encrypt                                  output.o
BF_options                                        output.o
BF_set_key                                        output.o
BF_version                                        output.o
BIGNUM_it                                         output.o
BIO_asn1_get_prefix                               output.o
BIO_asn1_get_suffix                               output.o
BIO_asn1_set_prefix                               output.o
BIO_asn1_set_suffix                               output.o
BIO_callback_ctrl                                 output.o
BIO_clear_flags                                   output.o
BIO_copy_next_retry                               output.o
BIO_ctrl                                          output.o
BIO_ctrl_pending                                  output.o
BIO_ctrl_wpending                                 output.o
BIO_dump                                          output.o
BIO_dump_cb                                       output.o
BIO_dump_indent                                   output.o
BIO_dump_indent_cb                                output.o
BIO_dup_chain                                     output.o
BIO_f_asn1                                        output.o
BIO_f_base64                                      output.o
BIO_f_buffer                                      output.o
BIO_f_cipher                                      output.o
BIO_f_md                                          output.o
BIO_find_type                                     output.o
BIO_free                                          output.o
BIO_free_all                                      output.o
BIO_get_callback                                  output.o
BIO_get_callback_arg                              output.o
BIO_get_ex_data                                   output.o
BIO_get_ex_new_index                              output.o
BIO_get_retry_BIO                                 output.o
BIO_get_retry_reason                              output.o
BIO_gets                                          output.o
BIO_indent                                        output.o
BIO_int_ctrl                                      output.o
BIO_method_name                                   output.o
BIO_method_type                                   output.o
BIO_new                                           output.o
BIO_new_CMS                                       output.o
BIO_new_NDEF                                      output.o
BIO_new_mem_buf                                   output.o
BIO_next                                          output.o
BIO_number_read                                   output.o
BIO_number_written                                output.o
BIO_pop                                           output.o
BIO_printf                                        output.o
BIO_ptr_ctrl                                      output.o
BIO_push                                          output.o
BIO_puts                                          output.o
BIO_read                                          output.o
BIO_s_mem                                         output.o
BIO_s_null                                        output.o
BIO_set                                           output.o
BIO_set_callback                                  output.o
BIO_set_callback_arg                              output.o
BIO_set_cipher                                    output.o
BIO_set_ex_data                                   output.o
BIO_set_flags                                     output.o
BIO_snprintf                                      output.o
BIO_test_flags                                    output.o
BIO_vfree                                         output.o
BIO_write                                         output.o
BN_BLINDING_convert                               output.o
BN_BLINDING_convert_ex                            output.o
BN_BLINDING_create_param                          output.o
BN_BLINDING_free                                  output.o
BN_BLINDING_get_flags                             output.o
BN_BLINDING_get_thread_id                         output.o
BN_BLINDING_invert                                output.o
BN_BLINDING_invert_ex                             output.o
BN_BLINDING_new                                   output.o
BN_BLINDING_set_flags                             output.o
BN_BLINDING_set_thread_id                         output.o
BN_BLINDING_thread_id                             output.o
BN_BLINDING_update                                output.o
BN_CTX_end                                        output.o
BN_CTX_free                                       output.o
BN_CTX_get                                        output.o
BN_CTX_init                                       output.o
BN_CTX_new                                        output.o
BN_CTX_start                                      output.o
BN_GENCB_call                                     output.o
BN_GF2m_add                                       output.o
BN_GF2m_arr2poly                                  output.o
BN_GF2m_mod                                       output.o
BN_GF2m_mod_arr                                   output.o
BN_GF2m_mod_div                                   output.o
BN_GF2m_mod_div_arr                               output.o
BN_GF2m_mod_exp                                   output.o
BN_GF2m_mod_exp_arr                               output.o
BN_GF2m_mod_inv                                   output.o
BN_GF2m_mod_inv_arr                               output.o
BN_GF2m_mod_mul                                   output.o
BN_GF2m_mod_mul_arr                               output.o
BN_GF2m_mod_solve_quad                            output.o
BN_GF2m_mod_solve_quad_arr                        output.o
BN_GF2m_mod_sqr                                   output.o
BN_GF2m_mod_sqr_arr                               output.o
BN_GF2m_mod_sqrt                                  output.o
BN_GF2m_mod_sqrt_arr                              output.o
BN_GF2m_poly2arr                                  output.o
BN_MONT_CTX_copy                                  output.o
BN_MONT_CTX_free                                  output.o
BN_MONT_CTX_init                                  output.o
BN_MONT_CTX_new                                   output.o
BN_MONT_CTX_set                                   output.o
BN_MONT_CTX_set_locked                            output.o
BN_RECP_CTX_free                                  output.o
BN_RECP_CTX_init                                  output.o
BN_RECP_CTX_new                                   output.o
BN_RECP_CTX_set                                   output.o
BN_add                                            output.o
BN_add_word                                       output.o
BN_asc2bn                                         output.o
BN_bin2bn                                         output.o
BN_bn2bin                                         output.o
BN_bn2dec                                         output.o
BN_bn2hex                                         output.o
BN_bntest_rand                                    output.o
BN_clear                                          output.o
BN_clear_bit                                      output.o
BN_clear_free                                     output.o
BN_cmp                                            output.o
BN_copy                                           output.o
BN_dec2bn                                         output.o
BN_div                                            output.o
BN_div_recp                                       output.o
BN_div_word                                       output.o
BN_dup                                            output.o
BN_exp                                            output.o
BN_free                                           output.o
BN_from_montgomery                                output.o
BN_gcd                                            output.o
BN_generate_prime_ex                              output.o
BN_get0_nist_prime_192                            output.o
BN_get0_nist_prime_224                            output.o
BN_get0_nist_prime_256                            output.o
BN_get0_nist_prime_384                            output.o
BN_get0_nist_prime_521                            output.o
BN_get_params                                     output.o
BN_get_word                                       output.o
BN_hex2bn                                         output.o
BN_init                                           output.o
BN_is_bit_set                                     output.o
BN_is_prime_ex                                    output.o
BN_is_prime_fasttest_ex                           output.o
BN_kronecker                                      output.o
BN_lshift                                         output.o
BN_lshift1                                        output.o
BN_mask_bits                                      output.o
BN_mod_add                                        output.o
BN_mod_add_quick                                  output.o
BN_mod_exp                                        output.o
BN_mod_exp2_mont                                  output.o
BN_mod_exp_mont                                   output.o
BN_mod_exp_mont_consttime                         output.o
BN_mod_exp_mont_word                              output.o
BN_mod_exp_recp                                   output.o
BN_mod_exp_simple                                 output.o
BN_mod_inverse                                    output.o
BN_mod_lshift                                     output.o
BN_mod_lshift1                                    output.o
BN_mod_lshift1_quick                              output.o
BN_mod_lshift_quick                               output.o
BN_mod_mul                                        output.o
BN_mod_mul_montgomery                             output.o
BN_mod_mul_reciprocal                             output.o
BN_mod_sqr                                        output.o
BN_mod_sqrt                                       output.o
BN_mod_sub                                        output.o
BN_mod_sub_quick                                  output.o
BN_mod_word                                       output.o
BN_mul                                            output.o
BN_mul_word                                       output.o
BN_new                                            output.o
BN_nist_mod_192                                   output.o
BN_nist_mod_224                                   output.o
BN_nist_mod_256                                   output.o
BN_nist_mod_384                                   output.o
BN_nist_mod_521                                   output.o
BN_nnmod                                          output.o
BN_num_bits                                       output.o
BN_num_bits_word                                  output.o
BN_options                                        output.o
BN_print                                          output.o
BN_pseudo_rand                                    output.o
BN_pseudo_rand_range                              output.o
BN_rand                                           output.o
BN_rand_range                                     output.o
BN_reciprocal                                     output.o
BN_rshift                                         output.o
BN_rshift1                                        output.o
BN_set_bit                                        output.o
BN_set_negative                                   output.o
BN_set_params                                     output.o
BN_set_word                                       output.o
BN_sqr                                            output.o
BN_sub                                            output.o
BN_sub_word                                       output.o
BN_swap                                           output.o
BN_to_ASN1_ENUMERATED                             output.o
BN_to_ASN1_INTEGER                                output.o
BN_uadd                                           output.o
BN_ucmp                                           output.o
BN_usub                                           output.o
BN_value_one                                      output.o
BN_version                                        output.o
BUF_MEM_free                                      output.o
BUF_MEM_grow                                      output.o
BUF_MEM_grow_clean                                output.o
BUF_MEM_new                                       output.o
BUF_memdup                                        output.o
BUF_reverse                                       output.o
BUF_strdup                                        output.o
BUF_strlcat                                       output.o
BUF_strlcpy                                       output.o
BUF_strndup                                       output.o
CAST_S_table0                                     output.o
CAST_S_table1                                     output.o
CAST_S_table2                                     output.o
CAST_S_table3                                     output.o
CAST_S_table4                                     output.o
CAST_S_table5                                     output.o
CAST_S_table6                                     output.o
CAST_S_table7                                     output.o
CAST_cbc_encrypt                                  output.o
CAST_cfb64_encrypt                                output.o
CAST_decrypt                                      output.o
CAST_ecb_encrypt                                  output.o
CAST_encrypt                                      output.o
CAST_ofb64_encrypt                                output.o
CAST_set_key                                      output.o
CAST_version                                      output.o
CBIGNUM_it                                        output.o
CERTIFICATEPOLICIES_free                          output.o
CERTIFICATEPOLICIES_it                            output.o
CERTIFICATEPOLICIES_new                           output.o
CMS_Attributes_Sign_it                            output.o
CMS_Attributes_Verify_it                          output.o
CMS_AuthenticatedData_it                          output.o
CMS_CertificateChoices_it                         output.o
CMS_CompressedData_it                             output.o
CMS_ContentInfo_free                              output.o
CMS_ContentInfo_it                                output.o
CMS_ContentInfo_new                               output.o
CMS_ContentInfo_print_ctx                         output.o
CMS_DigestedData_it                               output.o
CMS_EncapsulatedContentInfo_it                    output.o
CMS_EncryptedContentInfo_it                       output.o
CMS_EncryptedData_it                              output.o
CMS_EncryptedData_set1_key                        output.o
CMS_EnvelopedData_create                          output.o
CMS_EnvelopedData_it                              output.o
CMS_IssuerAndSerialNumber_it                      output.o
CMS_KEKIdentifier_it                              output.o
CMS_KEKRecipientInfo_it                           output.o
CMS_KeyAgreeRecipientIdentifier_it                output.o
CMS_KeyAgreeRecipientInfo_it                      output.o
CMS_KeyTransRecipientInfo_it                      output.o
CMS_OriginatorIdentifierOrKey_it                  output.o
CMS_OriginatorInfo_it                             output.o
CMS_OriginatorPublicKey_it                        output.o
CMS_OtherCertificateFormat_it                     output.o
CMS_OtherKeyAttribute_it                          output.o
CMS_OtherRecipientInfo_it                         output.o
CMS_OtherRevocationInfoFormat_it                  output.o
CMS_PasswordRecipientInfo_it                      output.o
CMS_ReceiptRequest_it                             output.o
CMS_Receipt_it                                    output.o
CMS_ReceiptsFrom_it                               output.o
CMS_RecipientEncryptedKey_it                      output.o
CMS_RecipientInfo_decrypt                         output.o
CMS_RecipientInfo_it                              output.o
CMS_RecipientInfo_kekri_get0_id                   output.o
CMS_RecipientInfo_kekri_id_cmp                    output.o
CMS_RecipientInfo_ktri_cert_cmp                   output.o
CMS_RecipientInfo_ktri_get0_algs                  output.o
CMS_RecipientInfo_ktri_get0_signer_id             output.o
CMS_RecipientInfo_set0_key                        output.o
CMS_RecipientInfo_set0_pkey                       output.o
CMS_RecipientInfo_type                            output.o
CMS_RecipientKeyIdentifier_it                     output.o
CMS_RevocationInfoChoice_it                       output.o
CMS_SignedData_init                               output.o
CMS_SignedData_it                                 output.o
CMS_SignerIdentifier_it                           output.o
CMS_SignerInfo_cert_cmp                           output.o
CMS_SignerInfo_get0_algs                          output.o
CMS_SignerInfo_get0_signer_id                     output.o
CMS_SignerInfo_it                                 output.o
CMS_SignerInfo_set1_signer_cert                   output.o
CMS_SignerInfo_sign                               output.o
CMS_SignerInfo_verify                             output.o
CMS_SignerInfo_verify_content                     output.o
CMS_add0_CertificateChoices                       output.o
CMS_add0_RevocationInfoChoice                     output.o
CMS_add0_cert                                     output.o
CMS_add0_crl                                      output.o
CMS_add0_recipient_key                            output.o
CMS_add1_cert                                     output.o
CMS_add1_crl                                      output.o
CMS_add1_recipient_cert                           output.o
CMS_add1_signer                                   output.o
CMS_add_simple_smimecap                           output.o
CMS_add_smimecap                                  output.o
CMS_add_standard_smimecap                         output.o
CMS_dataFinal                                     output.o
CMS_dataInit                                      output.o
CMS_get0_RecipientInfos                           output.o
CMS_get0_SignerInfos                              output.o
CMS_get0_content                                  output.o
CMS_get0_eContentType                             output.o
CMS_get0_signers                                  output.o
CMS_get0_type                                     output.o
CMS_get1_certs                                    output.o
CMS_get1_crls                                     output.o
CMS_is_detached                                   output.o
CMS_set1_eContentType                             output.o
CMS_set1_signers_certs                            output.o
CMS_set_detached                                  output.o
CMS_signed_add1_attr                              output.o
CMS_signed_add1_attr_by_NID                       output.o
CMS_signed_add1_attr_by_OBJ                       output.o
CMS_signed_add1_attr_by_txt                       output.o
CMS_signed_delete_attr                            output.o
CMS_signed_get0_data_by_OBJ                       output.o
CMS_signed_get_attr                               output.o
CMS_signed_get_attr_by_NID                        output.o
CMS_signed_get_attr_by_OBJ                        output.o
CMS_signed_get_attr_count                         output.o
CMS_stream                                        output.o
CMS_unsigned_add1_attr                            output.o
CMS_unsigned_add1_attr_by_NID                     output.o
CMS_unsigned_add1_attr_by_OBJ                     output.o
CMS_unsigned_add1_attr_by_txt                     output.o
CMS_unsigned_delete_attr                          output.o
CMS_unsigned_get0_data_by_OBJ                     output.o
CMS_unsigned_get_attr                             output.o
CMS_unsigned_get_attr_by_NID                      output.o
CMS_unsigned_get_attr_by_OBJ                      output.o
CMS_unsigned_get_attr_count                       output.o
CONF_def_version                                  output.o
CONF_dump_bio                                     output.o
CONF_free                                         output.o
CONF_get1_default_config_file                     output.o
CONF_get_number                                   output.o
CONF_get_section                                  output.o
CONF_get_string                                   output.o
CONF_imodule_get_flags                            output.o
CONF_imodule_get_module                           output.o
CONF_imodule_get_name                             output.o
CONF_imodule_get_usr_data                         output.o
CONF_imodule_get_value                            output.o
CONF_imodule_set_flags                            output.o
CONF_imodule_set_usr_data                         output.o
CONF_load                                         output.o
CONF_load_bio                                     output.o
CONF_module_add                                   output.o
CONF_module_get_usr_data                          output.o
CONF_module_set_usr_data                          output.o
CONF_modules_finish                               output.o
CONF_modules_free                                 output.o
CONF_modules_load                                 output.o
CONF_modules_load_file                            output.o
CONF_modules_unload                               output.o
CONF_parse_list                                   output.o
CONF_set_default_method                           output.o
CONF_set_nconf                                    output.o
CONF_version                                      output.o
CRL_DIST_POINTS_free                              output.o
CRL_DIST_POINTS_it                                output.o
CRL_DIST_POINTS_new                               output.o
CRYPTO_THREADID_cmp                               output.o
CRYPTO_THREADID_cpy                               output.o
CRYPTO_THREADID_current                           output.o
CRYPTO_THREADID_get_callback                      output.o
CRYPTO_THREADID_hash                              output.o
CRYPTO_THREADID_set_callback                      output.o
CRYPTO_THREADID_set_numeric                       output.o
CRYPTO_THREADID_set_pointer                       output.o
CRYPTO_add_lock                                   output.o
CRYPTO_cbc128_decrypt                             output.o
CRYPTO_cbc128_encrypt                             output.o
CRYPTO_cfb128_1_encrypt                           output.o
CRYPTO_cfb128_8_encrypt                           output.o
CRYPTO_cfb128_encrypt                             output.o
CRYPTO_cleanup_all_ex_data                        output.o
CRYPTO_dbg_free                                   output.o
CRYPTO_dbg_get_options                            output.o
CRYPTO_dbg_malloc                                 output.o
CRYPTO_dbg_realloc                                output.o
CRYPTO_dbg_set_options                            output.o
CRYPTO_destroy_dynlockid                          output.o
CRYPTO_dup_ex_data                                output.o
CRYPTO_ex_data_new_class                          output.o
CRYPTO_free                                       output.o
CRYPTO_free_ex_data                               output.o
CRYPTO_free_locked                                output.o
CRYPTO_get_add_lock_callback                      output.o
CRYPTO_get_dynlock_create_callback                output.o
CRYPTO_get_dynlock_destroy_callback               output.o
CRYPTO_get_dynlock_lock_callback                  output.o
CRYPTO_get_dynlock_value                          output.o
CRYPTO_get_ex_data                                output.o
CRYPTO_get_ex_data_implementation                 output.o
CRYPTO_get_ex_new_index                           output.o
CRYPTO_get_id_callback                            output.o
CRYPTO_get_lock_name                              output.o
CRYPTO_get_locked_mem_ex_functions                output.o
CRYPTO_get_locked_mem_functions                   output.o
CRYPTO_get_locking_callback                       output.o
CRYPTO_get_mem_debug_functions                    output.o
CRYPTO_get_mem_debug_options                      output.o
CRYPTO_get_mem_ex_functions                       output.o
CRYPTO_get_mem_functions                          output.o
CRYPTO_get_new_dynlockid                          output.o
CRYPTO_get_new_lockid                             output.o
CRYPTO_is_mem_check_on                            output.o
CRYPTO_lock                                       output.o
CRYPTO_malloc                                     output.o
CRYPTO_malloc_locked                              output.o
CRYPTO_mem_ctrl                                   output.o
CRYPTO_mem_leaks                                  output.o
CRYPTO_mem_leaks_cb                               output.o
CRYPTO_memcmp                                     output.o
CRYPTO_new_ex_data                                output.o
CRYPTO_num_locks                                  output.o
CRYPTO_ofb128_encrypt                             output.o
CRYPTO_pop_info                                   output.o
CRYPTO_push_info_                                 output.o
CRYPTO_realloc                                    output.o
CRYPTO_realloc_clean                              output.o
CRYPTO_remalloc                                   output.o
CRYPTO_remove_all_info                            output.o
CRYPTO_set_add_lock_callback                      output.o
CRYPTO_set_dynlock_create_callback                output.o
CRYPTO_set_dynlock_destroy_callback               output.o
CRYPTO_set_dynlock_lock_callback                  output.o
CRYPTO_set_ex_data                                output.o
CRYPTO_set_ex_data_implementation                 output.o
CRYPTO_set_id_callback                            output.o
CRYPTO_set_locked_mem_ex_functions                output.o
CRYPTO_set_locked_mem_functions                   output.o
CRYPTO_set_locking_callback                       output.o
CRYPTO_set_mem_debug_functions                    output.o
CRYPTO_set_mem_debug_options                      output.o
CRYPTO_set_mem_ex_functions                       output.o
CRYPTO_set_mem_functions                          output.o
CRYPTO_strdup                                     output.o
CRYPTO_thread_id                                  output.o
ClearBitmap                                       output.o
DES_SPtrans                                       output.o
DES_cfb64_encrypt                                 output.o
DES_cfb_encrypt                                   output.o
DES_check_key_parity                              output.o
DES_decrypt3                                      output.o
DES_ecb3_encrypt                                  output.o
DES_ecb_encrypt                                   output.o
DES_ede3_cbc_encrypt                              output.o
DES_ede3_cfb64_encrypt                            output.o
DES_ede3_cfb_encrypt                              output.o
DES_ede3_ofb64_encrypt                            output.o
DES_encrypt1                                      output.o
DES_encrypt2                                      output.o
DES_encrypt3                                      output.o
DES_is_weak_key                                   output.o
DES_key_sched                                     output.o
DES_ncbc_encrypt                                  output.o
DES_ofb64_encrypt                                 output.o
DES_options                                       output.o
DES_set_key                                       output.o
DES_set_key_checked                               output.o
DES_set_key_unchecked                             output.o
DES_set_odd_parity                                output.o
DES_xcbc_encrypt                                  output.o
DH_OpenSSL                                        output.o
DH_check                                          output.o
DH_check_pub_key                                  output.o
DH_compute_key                                    output.o
DH_free                                           output.o
DH_generate_key                                   output.o
DH_generate_parameters_ex                         output.o
DH_get_default_method                             output.o
DH_get_ex_data                                    output.o
DH_get_ex_new_index                               output.o
DH_new                                            output.o
DH_new_method                                     output.o
DH_set_default_method                             output.o
DH_set_ex_data                                    output.o
DH_set_method                                     output.o
DH_size                                           output.o
DH_up_ref                                         output.o
DH_version                                        output.o
DHparams_dup                                      output.o
DHparams_it                                       output.o
DHparams_print                                    output.o
DIRECTORYSTRING_free                              output.o
DIRECTORYSTRING_it                                output.o
DIRECTORYSTRING_new                               output.o
DISPLAYTEXT_free                                  output.o
DISPLAYTEXT_it                                    output.o
DISPLAYTEXT_new                                   output.o
DIST_POINT_NAME_free                              output.o
DIST_POINT_NAME_it                                output.o
DIST_POINT_NAME_new                               output.o
DIST_POINT_free                                   output.o
DIST_POINT_it                                     output.o
DIST_POINT_new                                    output.o
DIST_POINT_set_dpname                             output.o
DSAPrivateKey_it                                  output.o
DSAPublicKey_it                                   output.o
DSA_OpenSSL                                       output.o
DSA_SIG_free                                      output.o
DSA_SIG_it                                        output.o
DSA_SIG_new                                       output.o
DSA_do_sign                                       output.o
DSA_do_verify                                     output.o
DSA_dup_DH                                        output.o
DSA_free                                          output.o
DSA_generate_key                                  output.o
DSA_generate_parameters_ex                        output.o
DSA_get_default_method                            output.o
DSA_get_ex_data                                   output.o
DSA_get_ex_new_index                              output.o
DSA_new                                           output.o
DSA_new_method                                    output.o
DSA_set_default_method                            output.o
DSA_set_ex_data                                   output.o
DSA_set_method                                    output.o
DSA_sign                                          output.o
DSA_sign_setup                                    output.o
DSA_size                                          output.o
DSA_up_ref                                        output.o
DSA_verify                                        output.o
DSA_version                                       output.o
DSAparams_dup                                     output.o
DSAparams_it                                      output.o
DSO_METHOD_null                                   output.o
DSO_METHOD_openssl                                output.o
DSO_bind_func                                     output.o
DSO_bind_var                                      output.o
DSO_convert_filename                              output.o
DSO_ctrl                                          output.o
DSO_flags                                         output.o
DSO_free                                          output.o
DSO_get_default_method                            output.o
DSO_get_filename                                  output.o
DSO_get_loaded_filename                           output.o
DSO_get_method                                    output.o
DSO_global_lookup                                 output.o
DSO_load                                          output.o
DSO_merge                                         output.o
DSO_new                                           output.o
DSO_new_method                                    output.o
DSO_pathbyaddr                                    output.o
DSO_set_default_method                            output.o
DSO_set_filename                                  output.o
DSO_set_method                                    output.o
DSO_set_name_converter                            output.o
DSO_up_ref                                        output.o
ECDH_OpenSSL                                      output.o
ECDH_compute_key                                  output.o
ECDH_get_default_method                           output.o
ECDH_get_ex_data                                  output.o
ECDH_get_ex_new_index                             output.o
ECDH_set_default_method                           output.o
ECDH_set_ex_data                                  output.o
ECDH_set_method                                   output.o
ECDH_version                                      output.o
ECDSA_OpenSSL                                     output.o
ECDSA_SIG_free                                    output.o
ECDSA_SIG_it                                      output.o
ECDSA_SIG_new                                     output.o
ECDSA_do_sign                                     output.o
ECDSA_do_sign_ex                                  output.o
ECDSA_do_verify                                   output.o
ECDSA_get_default_method                          output.o
ECDSA_get_ex_data                                 output.o
ECDSA_get_ex_new_index                            output.o
ECDSA_set_default_method                          output.o
ECDSA_set_ex_data                                 output.o
ECDSA_set_method                                  output.o
ECDSA_sign                                        output.o
ECDSA_sign_ex                                     output.o
ECDSA_sign_setup                                  output.o
ECDSA_size                                        output.o
ECDSA_verify                                      output.o
ECDSA_version                                     output.o
ECPARAMETERS_free                                 output.o
ECPARAMETERS_it                                   output.o
ECPARAMETERS_new                                  output.o
ECPKPARAMETERS_free                               output.o
ECPKPARAMETERS_it                                 output.o
ECPKPARAMETERS_new                                output.o
ECPKParameters_print                              output.o
ECParameters_print                                output.o
EC_EX_DATA_clear_free_all_data                    output.o
EC_EX_DATA_clear_free_data                        output.o
EC_EX_DATA_free_all_data                          output.o
EC_EX_DATA_free_data                              output.o
EC_EX_DATA_get_data                               output.o
EC_EX_DATA_set_data                               output.o
EC_GF2m_simple_method                             output.o
EC_GFp_mont_method                                output.o
EC_GFp_nist_method                                output.o
EC_GFp_simple_method                              output.o
EC_GROUP_check_discriminant                       output.o
EC_GROUP_clear_free                               output.o
EC_GROUP_cmp                                      output.o
EC_GROUP_copy                                     output.o
EC_GROUP_dup                                      output.o
EC_GROUP_free                                     output.o
EC_GROUP_get0_generator                           output.o
EC_GROUP_get0_seed                                output.o
EC_GROUP_get_asn1_flag                            output.o
EC_GROUP_get_basis_type                           output.o
EC_GROUP_get_cofactor                             output.o
EC_GROUP_get_curve_GF2m                           output.o
EC_GROUP_get_curve_GFp                            output.o
EC_GROUP_get_curve_name                           output.o
EC_GROUP_get_degree                               output.o
EC_GROUP_get_order                                output.o
EC_GROUP_get_pentanomial_basis                    output.o
EC_GROUP_get_point_conversion_form                output.o
EC_GROUP_get_seed_len                             output.o
EC_GROUP_get_trinomial_basis                      output.o
EC_GROUP_have_precompute_mult                     output.o
EC_GROUP_method_of                                output.o
EC_GROUP_new                                      output.o
EC_GROUP_new_by_curve_name                        output.o
EC_GROUP_new_curve_GF2m                           output.o
EC_GROUP_new_curve_GFp                            output.o
EC_GROUP_precompute_mult                          output.o
EC_GROUP_set_asn1_flag                            output.o
EC_GROUP_set_curve_GF2m                           output.o
EC_GROUP_set_curve_GFp                            output.o
EC_GROUP_set_curve_name                           output.o
EC_GROUP_set_generator                            output.o
EC_GROUP_set_point_conversion_form                output.o
EC_GROUP_set_seed                                 output.o
EC_KEY_check_key                                  output.o
EC_KEY_copy                                       output.o
EC_KEY_dup                                        output.o
EC_KEY_free                                       output.o
EC_KEY_generate_key                               output.o
EC_KEY_get0_group                                 output.o
EC_KEY_get0_private_key                           output.o
EC_KEY_get0_public_key                            output.o
EC_KEY_get_conv_form                              output.o
EC_KEY_get_enc_flags                              output.o
EC_KEY_get_key_method_data                        output.o
EC_KEY_insert_key_method_data                     output.o
EC_KEY_new                                        output.o
EC_KEY_new_by_curve_name                          output.o
EC_KEY_precompute_mult                            output.o
EC_KEY_print                                      output.o
EC_KEY_set_asn1_flag                              output.o
EC_KEY_set_conv_form                              output.o
EC_KEY_set_enc_flags                              output.o
EC_KEY_set_group                                  output.o
EC_KEY_set_private_key                            output.o
EC_KEY_set_public_key                             output.o
EC_KEY_up_ref                                     output.o
EC_METHOD_get_field_type                          output.o
EC_POINT_add                                      output.o
EC_POINT_bn2point                                 output.o
EC_POINT_clear_free                               output.o
EC_POINT_cmp                                      output.o
EC_POINT_copy                                     output.o
EC_POINT_dbl                                      output.o
EC_POINT_dup                                      output.o
EC_POINT_free                                     output.o
EC_POINT_get_Jprojective_coordinates_GFp          output.o
EC_POINT_get_affine_coordinates_GF2m              output.o
EC_POINT_get_affine_coordinates_GFp               output.o
EC_POINT_hex2point                                output.o
EC_POINT_invert                                   output.o
EC_POINT_is_at_infinity                           output.o
EC_POINT_is_on_curve                              output.o
EC_POINT_make_affine                              output.o
EC_POINT_method_of                                output.o
EC_POINT_mul                                      output.o
EC_POINT_new                                      output.o
EC_POINT_oct2point                                output.o
EC_POINT_point2bn                                 output.o
EC_POINT_point2hex                                output.o
EC_POINT_point2oct                                output.o
EC_POINT_set_Jprojective_coordinates_GFp          output.o
EC_POINT_set_affine_coordinates_GF2m              output.o
EC_POINT_set_affine_coordinates_GFp               output.o
EC_POINT_set_compressed_coordinates_GF2m          output.o
EC_POINT_set_compressed_coordinates_GFp           output.o
EC_POINT_set_to_infinity                          output.o
EC_POINTs_make_affine                             output.o
EC_POINTs_mul                                     output.o
EC_PRIVATEKEY_free                                output.o
EC_PRIVATEKEY_it                                  output.o
EC_PRIVATEKEY_new                                 output.o
EC_get_builtin_curves                             output.o
EDIPARTYNAME_free                                 output.o
EDIPARTYNAME_it                                   output.o
EDIPARTYNAME_new                                  output.o
ERR_add_error_data                                output.o
ERR_clear_error                                   output.o
ERR_error_string                                  output.o
ERR_error_string_n                                output.o
ERR_free_strings                                  output.o
ERR_func_error_string                             output.o
ERR_get_err_state_table                           output.o
ERR_get_error                                     output.o
ERR_get_error_line                                output.o
ERR_get_error_line_data                           output.o
ERR_get_implementation                            output.o
ERR_get_next_error_library                        output.o
ERR_get_state                                     output.o
ERR_get_string_table                              output.o
ERR_lib_error_string                              output.o
ERR_load_ASN1_strings                             output.o
ERR_load_BIO_strings                              output.o
ERR_load_BN_strings                               output.o
ERR_load_BUF_strings                              output.o
ERR_load_CMS_strings                              output.o
ERR_load_COMP_strings                             output.o
ERR_load_CONF_strings                             output.o
ERR_load_CRYPTO_strings                           output.o
ERR_load_DH_strings                               output.o
ERR_load_DSA_strings                              output.o
ERR_load_DSO_strings                              output.o
ERR_load_ECDH_strings                             output.o
ERR_load_ECDSA_strings                            output.o
ERR_load_EC_strings                               output.o
ERR_load_ERR_strings                              output.o
ERR_load_EVP_strings                              output.o
ERR_load_OBJ_strings                              output.o
ERR_load_OCSP_strings                             output.o
ERR_load_PEM_strings                              output.o
ERR_load_PKCS12_strings                           output.o
ERR_load_PKCS7_strings                            output.o
ERR_load_RAND_strings                             output.o
ERR_load_RSA_strings                              output.o
ERR_load_TS_strings                               output.o
ERR_load_UI_strings                               output.o
ERR_load_X509V3_strings                           output.o
ERR_load_X509_strings                             output.o
ERR_load_crypto_strings                           output.o
ERR_load_strings                                  output.o
ERR_peek_error                                    output.o
ERR_peek_error_line                               output.o
ERR_peek_error_line_data                          output.o
ERR_peek_last_error                               output.o
ERR_peek_last_error_line                          output.o
ERR_peek_last_error_line_data                     output.o
ERR_pop_to_mark                                   output.o
ERR_print_errors                                  output.o
ERR_print_errors_cb                               output.o
ERR_put_error                                     output.o
ERR_reason_error_string                           output.o
ERR_release_err_state_table                       output.o
ERR_remove_state                                  output.o
ERR_remove_thread_state                           output.o
ERR_set_error_data                                output.o
ERR_set_implementation                            output.o
ERR_set_mark                                      output.o
ERR_unload_strings                                output.o
EVP_BytesToKey                                    output.o
EVP_CIPHER_CTX_block_size                         output.o
EVP_CIPHER_CTX_cipher                             output.o
EVP_CIPHER_CTX_cleanup                            output.o
EVP_CIPHER_CTX_clear_flags                        output.o
EVP_CIPHER_CTX_copy                               output.o
EVP_CIPHER_CTX_ctrl                               output.o
EVP_CIPHER_CTX_flags                              output.o
EVP_CIPHER_CTX_free                               output.o
EVP_CIPHER_CTX_get_app_data                       output.o
EVP_CIPHER_CTX_init                               output.o
EVP_CIPHER_CTX_iv_length                          output.o
EVP_CIPHER_CTX_key_length                         output.o
EVP_CIPHER_CTX_new                                output.o
EVP_CIPHER_CTX_nid                                output.o
EVP_CIPHER_CTX_rand_key                           output.o
EVP_CIPHER_CTX_set_app_data                       output.o
EVP_CIPHER_CTX_set_flags                          output.o
EVP_CIPHER_CTX_set_key_length                     output.o
EVP_CIPHER_CTX_set_padding                        output.o
EVP_CIPHER_CTX_test_flags                         output.o
EVP_CIPHER_asn1_to_param                          output.o
EVP_CIPHER_block_size                             output.o
EVP_CIPHER_do_all                                 output.o
EVP_CIPHER_do_all_sorted                          output.o
EVP_CIPHER_flags                                  output.o
EVP_CIPHER_get_asn1_iv                            output.o
EVP_CIPHER_iv_length                              output.o
EVP_CIPHER_key_length                             output.o
EVP_CIPHER_nid                                    output.o
EVP_CIPHER_param_to_asn1                          output.o
EVP_CIPHER_set_asn1_iv                            output.o
EVP_CIPHER_type                                   output.o
EVP_Cipher                                        output.o
EVP_CipherFinal                                   output.o
EVP_CipherFinal_ex                                output.o
EVP_CipherInit                                    output.o
EVP_CipherInit_ex                                 output.o
EVP_CipherUpdate                                  output.o
EVP_DecodeBlock                                   output.o
EVP_DecodeFinal                                   output.o
EVP_DecodeInit                                    output.o
EVP_DecodeUpdate                                  output.o
EVP_DecryptFinal                                  output.o
EVP_DecryptFinal_ex                               output.o
EVP_DecryptInit                                   output.o
EVP_DecryptInit_ex                                output.o
EVP_DecryptUpdate                                 output.o
EVP_Digest                                        output.o
EVP_DigestFinal                                   output.o
EVP_DigestFinal_ex                                output.o
EVP_DigestInit                                    output.o
EVP_DigestInit_ex                                 output.o
EVP_DigestSignFinal                               output.o
EVP_DigestSignInit                                output.o
EVP_DigestUpdate                                  output.o
EVP_DigestVerifyFinal                             output.o
EVP_DigestVerifyInit                              output.o
EVP_EncodeBlock                                   output.o
EVP_EncodeFinal                                   output.o
EVP_EncodeInit                                    output.o
EVP_EncodeUpdate                                  output.o
EVP_EncryptFinal                                  output.o
EVP_EncryptFinal_ex                               output.o
EVP_EncryptInit                                   output.o
EVP_EncryptInit_ex                                output.o
EVP_EncryptUpdate                                 output.o
EVP_MD_CTX_cleanup                                output.o
EVP_MD_CTX_clear_flags                            output.o
EVP_MD_CTX_copy                                   output.o
EVP_MD_CTX_copy_ex                                output.o
EVP_MD_CTX_create                                 output.o
EVP_MD_CTX_destroy                                output.o
EVP_MD_CTX_init                                   output.o
EVP_MD_CTX_md                                     output.o
EVP_MD_CTX_set_flags                              output.o
EVP_MD_CTX_test_flags                             output.o
EVP_MD_block_size                                 output.o
EVP_MD_do_all                                     output.o
EVP_MD_do_all_sorted                              output.o
EVP_MD_flags                                      output.o
EVP_MD_pkey_type                                  output.o
EVP_MD_size                                       output.o
EVP_MD_type                                       output.o
EVP_PBE_CipherInit                                output.o
EVP_PBE_alg_add                                   output.o
EVP_PBE_alg_add_type                              output.o
EVP_PBE_cleanup                                   output.o
EVP_PBE_find                                      output.o
EVP_PKCS82PKEY                                    output.o
EVP_PKEY2PKCS8                                    output.o
EVP_PKEY2PKCS8_broken                             output.o
EVP_PKEY_CTX_ctrl                                 output.o
EVP_PKEY_CTX_ctrl_str                             output.o
EVP_PKEY_CTX_dup                                  output.o
EVP_PKEY_CTX_free                                 output.o
EVP_PKEY_CTX_get0_peerkey                         output.o
EVP_PKEY_CTX_get0_pkey                            output.o
EVP_PKEY_CTX_get_app_data                         output.o
EVP_PKEY_CTX_get_cb                               output.o
EVP_PKEY_CTX_get_data                             output.o
EVP_PKEY_CTX_get_keygen_info                      output.o
EVP_PKEY_CTX_get_operation                        output.o
EVP_PKEY_CTX_new                                  output.o
EVP_PKEY_CTX_new_id                               output.o
EVP_PKEY_CTX_set0_keygen_info                     output.o
EVP_PKEY_CTX_set_app_data                         output.o
EVP_PKEY_CTX_set_cb                               output.o
EVP_PKEY_CTX_set_data                             output.o
EVP_PKEY_add1_attr                                output.o
EVP_PKEY_add1_attr_by_NID                         output.o
EVP_PKEY_add1_attr_by_OBJ                         output.o
EVP_PKEY_add1_attr_by_txt                         output.o
EVP_PKEY_asn1_add0                                output.o
EVP_PKEY_asn1_add_alias                           output.o
EVP_PKEY_asn1_copy                                output.o
EVP_PKEY_asn1_find                                output.o
EVP_PKEY_asn1_find_str                            output.o
EVP_PKEY_asn1_free                                output.o
EVP_PKEY_asn1_get0                                output.o
EVP_PKEY_asn1_get0_info                           output.o
EVP_PKEY_asn1_get_count                           output.o
EVP_PKEY_asn1_new                                 output.o
EVP_PKEY_asn1_set_ctrl                            output.o
EVP_PKEY_asn1_set_free                            output.o
EVP_PKEY_asn1_set_param                           output.o
EVP_PKEY_asn1_set_private                         output.o
EVP_PKEY_asn1_set_public                          output.o
EVP_PKEY_assign                                   output.o
EVP_PKEY_base_id                                  output.o
EVP_PKEY_bits                                     output.o
EVP_PKEY_cmp                                      output.o
EVP_PKEY_cmp_parameters                           output.o
EVP_PKEY_copy_parameters                          output.o
EVP_PKEY_decrypt                                  output.o
EVP_PKEY_decrypt_init                             output.o
EVP_PKEY_delete_attr                              output.o
EVP_PKEY_derive                                   output.o
EVP_PKEY_derive_init                              output.o
EVP_PKEY_derive_set_peer                          output.o
EVP_PKEY_encrypt                                  output.o
EVP_PKEY_encrypt_init                             output.o
EVP_PKEY_free                                     output.o
EVP_PKEY_get0                                     output.o
EVP_PKEY_get0_asn1                                output.o
EVP_PKEY_get1_DH                                  output.o
EVP_PKEY_get1_DSA                                 output.o
EVP_PKEY_get1_EC_KEY                              output.o
EVP_PKEY_get1_RSA                                 output.o
EVP_PKEY_get_attr                                 output.o
EVP_PKEY_get_attr_by_NID                          output.o
EVP_PKEY_get_attr_by_OBJ                          output.o
EVP_PKEY_get_attr_count                           output.o
EVP_PKEY_get_default_digest_nid                   output.o
EVP_PKEY_id                                       output.o
EVP_PKEY_keygen                                   output.o
EVP_PKEY_keygen_init                              output.o
EVP_PKEY_meth_add0                                output.o
EVP_PKEY_meth_find                                output.o
EVP_PKEY_meth_free                                output.o
EVP_PKEY_meth_new                                 output.o
EVP_PKEY_meth_set_cleanup                         output.o
EVP_PKEY_meth_set_copy                            output.o
EVP_PKEY_meth_set_ctrl                            output.o
EVP_PKEY_meth_set_decrypt                         output.o
EVP_PKEY_meth_set_derive                          output.o
EVP_PKEY_meth_set_encrypt                         output.o
EVP_PKEY_meth_set_init                            output.o
EVP_PKEY_meth_set_keygen                          output.o
EVP_PKEY_meth_set_paramgen                        output.o
EVP_PKEY_meth_set_sign                            output.o
EVP_PKEY_meth_set_signctx                         output.o
EVP_PKEY_meth_set_verify                          output.o
EVP_PKEY_meth_set_verify_recover                  output.o
EVP_PKEY_meth_set_verifyctx                       output.o
EVP_PKEY_missing_parameters                       output.o
EVP_PKEY_new                                      output.o
EVP_PKEY_new_mac_key                              output.o
EVP_PKEY_paramgen                                 output.o
EVP_PKEY_paramgen_init                            output.o
EVP_PKEY_print_params                             output.o
EVP_PKEY_print_private                            output.o
EVP_PKEY_print_public                             output.o
EVP_PKEY_save_parameters                          output.o
EVP_PKEY_set1_DH                                  output.o
EVP_PKEY_set1_DSA                                 output.o
EVP_PKEY_set1_EC_KEY                              output.o
EVP_PKEY_set1_RSA                                 output.o
EVP_PKEY_set_type                                 output.o
EVP_PKEY_set_type_str                             output.o
EVP_PKEY_sign                                     output.o
EVP_PKEY_sign_init                                output.o
EVP_PKEY_size                                     output.o
EVP_PKEY_type                                     output.o
EVP_PKEY_verify                                   output.o
EVP_PKEY_verify_init                              output.o
EVP_PKEY_verify_recover                           output.o
EVP_PKEY_verify_recover_init                      output.o
EVP_SignFinal                                     output.o
EVP_VerifyFinal                                   output.o
EVP_add_cipher                                    output.o
EVP_add_digest                                    output.o
EVP_aes_128_cbc                                   output.o
EVP_aes_128_cfb1                                  output.o
EVP_aes_128_cfb128                                output.o
EVP_aes_128_cfb8                                  output.o
EVP_aes_128_ecb                                   output.o
EVP_aes_128_ofb                                   output.o
EVP_aes_192_cbc                                   output.o
EVP_aes_192_cfb1                                  output.o
EVP_aes_192_cfb128                                output.o
EVP_aes_192_cfb8                                  output.o
EVP_aes_192_ecb                                   output.o
EVP_aes_192_ofb                                   output.o
EVP_aes_256_cbc                                   output.o
EVP_aes_256_cfb1                                  output.o
EVP_aes_256_cfb128                                output.o
EVP_aes_256_cfb8                                  output.o
EVP_aes_256_ecb                                   output.o
EVP_aes_256_ofb                                   output.o
EVP_bf_cbc                                        output.o
EVP_bf_cfb64                                      output.o
EVP_bf_ecb                                        output.o
EVP_bf_ofb                                        output.o
EVP_cast5_cbc                                     output.o
EVP_cast5_cfb64                                   output.o
EVP_cast5_ecb                                     output.o
EVP_cast5_ofb                                     output.o
EVP_cleanup                                       output.o
EVP_des_cbc                                       output.o
EVP_des_cfb1                                      output.o
EVP_des_cfb64                                     output.o
EVP_des_cfb8                                      output.o
EVP_des_ecb                                       output.o
EVP_des_ede                                       output.o
EVP_des_ede3                                      output.o
EVP_des_ede3_cbc                                  output.o
EVP_des_ede3_cfb1                                 output.o
EVP_des_ede3_cfb64                                output.o
EVP_des_ede3_cfb8                                 output.o
EVP_des_ede3_ecb                                  output.o
EVP_des_ede3_ofb                                  output.o
EVP_des_ede_cbc                                   output.o
EVP_des_ede_cfb64                                 output.o
EVP_des_ede_ecb                                   output.o
EVP_des_ede_ofb                                   output.o
EVP_des_ofb                                       output.o
EVP_desx_cbc                                      output.o
EVP_dss                                           output.o
EVP_dss1                                          output.o
EVP_ecdsa                                         output.o
EVP_get_cipherbyname                              output.o
EVP_get_digestbyname                              output.o
EVP_get_pw_prompt                                 output.o
EVP_idea_cbc                                      output.o
EVP_idea_cfb64                                    output.o
EVP_idea_ecb                                      output.o
EVP_idea_ofb                                      output.o
EVP_md4                                           output.o
EVP_md5                                           output.o
EVP_rc2_40_cbc                                    output.o
EVP_rc2_64_cbc                                    output.o
EVP_rc2_cbc                                       output.o
EVP_rc2_cfb64                                     output.o
EVP_rc2_ecb                                       output.o
EVP_rc2_ofb                                       output.o
EVP_rc4                                           output.o
EVP_rc4_40                                        output.o
EVP_read_pw_string                                output.o
EVP_read_pw_string_min                            output.o
EVP_ripemd160                                     output.o
EVP_set_pw_prompt                                 output.o
EVP_sha                                           output.o
EVP_sha1                                          output.o
EVP_sha224                                        output.o
EVP_sha256                                        output.o
EVP_sha384                                        output.o
EVP_sha512                                        output.o
EVP_version                                       output.o
EVP_whirlpool                                     output.o
EXTENDED_KEY_USAGE_free                           output.o
EXTENDED_KEY_USAGE_it                             output.o
EXTENDED_KEY_USAGE_new                            output.o
GENERAL_NAMES_free                                output.o
GENERAL_NAMES_it                                  output.o
GENERAL_NAMES_new                                 output.o
GENERAL_NAME_cmp                                  output.o
GENERAL_NAME_dup                                  output.o
GENERAL_NAME_free                                 output.o
GENERAL_NAME_get0_otherName                       output.o
GENERAL_NAME_get0_value                           output.o
GENERAL_NAME_it                                   output.o
GENERAL_NAME_new                                  output.o
GENERAL_NAME_print                                output.o
GENERAL_NAME_set0_othername                       output.o
GENERAL_NAME_set0_value                           output.o
GENERAL_SUBTREE_free                              output.o
GENERAL_SUBTREE_it                                output.o
GENERAL_SUBTREE_new                               output.o
HMAC                                              output.o
HMAC_CTX_cleanup                                  output.o
HMAC_CTX_copy                                     output.o
HMAC_CTX_init                                     output.o
HMAC_CTX_set_flags                                output.o
HMAC_Final                                        output.o
HMAC_Init                                         output.o
HMAC_Init_ex                                      output.o
HMAC_Update                                       output.o
IDEA_version                                      output.o
ISSUING_DIST_POINT_free                           output.o
ISSUING_DIST_POINT_it                             output.o
ISSUING_DIST_POINT_new                            output.o
InitCryptoLibrary                                 output.o
LONG_it                                           output.o
MD4_Final                                         output.o
MD4_Init                                          output.o
MD4_Transform                                     output.o
MD4_Update                                        output.o
MD4_version                                       output.o
MD5_Final                                         output.o
MD5_Init                                          output.o
MD5_Transform                                     output.o
MD5_Update                                        output.o
MD5_version                                       output.o
NAME_CONSTRAINTS_check                            output.o
NAME_CONSTRAINTS_free                             output.o
NAME_CONSTRAINTS_it                               output.o
NAME_CONSTRAINTS_new                              output.o
NCONF_WIN32                                       output.o
NCONF_default                                     output.o
NCONF_dump_bio                                    output.o
NCONF_free                                        output.o
NCONF_free_data                                   output.o
NCONF_get_number_e                                output.o
NCONF_get_section                                 output.o
NCONF_get_string                                  output.o
NCONF_load                                        output.o
NCONF_load_bio                                    output.o
NCONF_new                                         output.o
NETSCAPE_SPKAC_free                               output.o
NETSCAPE_SPKAC_it                                 output.o
NETSCAPE_SPKAC_new                                output.o
NETSCAPE_SPKI_free                                output.o
NETSCAPE_SPKI_it                                  output.o
NETSCAPE_SPKI_new                                 output.o
NETSCAPE_SPKI_sign                                output.o
NETSCAPE_SPKI_verify                              output.o
NOTICEREF_free                                    output.o
NOTICEREF_it                                      output.o
NOTICEREF_new                                     output.o
NTFS_MetaFile_Bitmap                              output.o
NTFS_MetaFile_ConvertToNonresident                output.o
NTFS_MetaFile_MFT                                 output.o
OBJ_NAME_add                                      output.o
OBJ_NAME_cleanup                                  output.o
OBJ_NAME_do_all                                   output.o
OBJ_NAME_do_all_sorted                            output.o
OBJ_NAME_get                                      output.o
OBJ_NAME_init                                     output.o
OBJ_NAME_new_index                                output.o
OBJ_NAME_remove                                   output.o
OBJ_add_object                                    output.o
OBJ_add_sigid                                     output.o
OBJ_bsearch_                                      output.o
OBJ_bsearch_ex_                                   output.o
OBJ_cleanup                                       output.o
OBJ_cmp                                           output.o
OBJ_create                                        output.o
OBJ_create_objects                                output.o
OBJ_dup                                           output.o
OBJ_find_sigid_algs                               output.o
OBJ_find_sigid_by_algs                            output.o
OBJ_ln2nid                                        output.o
OBJ_new_nid                                       output.o
OBJ_nid2ln                                        output.o
OBJ_nid2obj                                       output.o
OBJ_nid2sn                                        output.o
OBJ_obj2nid                                       output.o
OBJ_obj2txt                                       output.o
OBJ_sigid_free                                    output.o
OBJ_sn2nid                                        output.o
OBJ_txt2nid                                       output.o
OBJ_txt2obj                                       output.o
OCSP_BASICRESP_free                               output.o
OCSP_BASICRESP_it                                 output.o
OCSP_BASICRESP_new                                output.o
OCSP_CERTID_free                                  output.o
OCSP_CERTID_it                                    output.o
OCSP_CERTID_new                                   output.o
OCSP_CERTSTATUS_free                              output.o
OCSP_CERTSTATUS_it                                output.o
OCSP_CERTSTATUS_new                               output.o
OCSP_CRLID_free                                   output.o
OCSP_CRLID_it                                     output.o
OCSP_CRLID_new                                    output.o
OCSP_ONEREQ_free                                  output.o
OCSP_ONEREQ_it                                    output.o
OCSP_ONEREQ_new                                   output.o
OCSP_REQINFO_free                                 output.o
OCSP_REQINFO_it                                   output.o
OCSP_REQINFO_new                                  output.o
OCSP_REQUEST_free                                 output.o
OCSP_REQUEST_it                                   output.o
OCSP_REQUEST_new                                  output.o
OCSP_RESPBYTES_free                               output.o
OCSP_RESPBYTES_it                                 output.o
OCSP_RESPBYTES_new                                output.o
OCSP_RESPDATA_free                                output.o
OCSP_RESPDATA_it                                  output.o
OCSP_RESPDATA_new                                 output.o
OCSP_RESPID_free                                  output.o
OCSP_RESPID_it                                    output.o
OCSP_RESPID_new                                   output.o
OCSP_RESPONSE_free                                output.o
OCSP_RESPONSE_it                                  output.o
OCSP_RESPONSE_new                                 output.o
OCSP_REVOKEDINFO_free                             output.o
OCSP_REVOKEDINFO_it                               output.o
OCSP_REVOKEDINFO_new                              output.o
OCSP_SERVICELOC_free                              output.o
OCSP_SERVICELOC_it                                output.o
OCSP_SERVICELOC_new                               output.o
OCSP_SIGNATURE_free                               output.o
OCSP_SIGNATURE_it                                 output.o
OCSP_SIGNATURE_new                                output.o
OCSP_SINGLERESP_free                              output.o
OCSP_SINGLERESP_it                                output.o
OCSP_SINGLERESP_new                               output.o
OPENSSL_NONPIC_relocated                          output.o
OPENSSL_asc2uni                                   output.o
OPENSSL_cleanse                                   output.o
OPENSSL_cpuid_setup                               output.o
OPENSSL_gmtime                                    output.o
OPENSSL_gmtime_adj                                output.o
OPENSSL_ia32cap_P                                 output.o
OPENSSL_ia32cap_loc                               output.o
OPENSSL_isservice                                 output.o
OPENSSL_showfatal                                 output.o
OPENSSL_stderr                                    output.o
OPENSSL_uni2asc                                   output.o
OSSL_DES_version                                  output.o
OSSL_libdes_version                               output.o
OTHERNAME_cmp                                     output.o
OTHERNAME_free                                    output.o
OTHERNAME_it                                      output.o
OTHERNAME_new                                     output.o
OpenSSLDie                                        output.o
OpenSSL_add_all_ciphers                           output.o
OpenSSL_add_all_digests                           output.o
PBE2PARAM_free                                    output.o
PBE2PARAM_it                                      output.o
PBE2PARAM_new                                     output.o
PBEPARAM_free                                     output.o
PBEPARAM_it                                       output.o
PBEPARAM_new                                      output.o
PBKDF2PARAM_free                                  output.o
PBKDF2PARAM_it                                    output.o
PBKDF2PARAM_new                                   output.o
PEM_ASN1_read_bio                                 output.o
PEM_ASN1_write_bio                                output.o
PEM_bytes_read_bio                                output.o
PEM_def_callback                                  output.o
PEM_dek_info                                      output.o
PEM_do_header                                     output.o
PEM_get_EVP_CIPHER_INFO                           output.o
PEM_proc_type                                     output.o
PEM_read_bio                                      output.o
PEM_read_bio_CMS                                  output.o
PEM_version                                       output.o
PEM_write_bio                                     output.o
PEM_write_bio_ASN1_stream                         output.o
PEM_write_bio_CMS                                 output.o
PEM_write_bio_CMS_stream                          output.o
PKCS12_AUTHSAFES_it                               output.o
PKCS12_BAGS_free                                  output.o
PKCS12_BAGS_it                                    output.o
PKCS12_BAGS_new                                   output.o
PKCS12_MAC_DATA_free                              output.o
PKCS12_MAC_DATA_it                                output.o
PKCS12_MAC_DATA_new                               output.o
PKCS12_MAKE_KEYBAG                                output.o
PKCS12_MAKE_SHKEYBAG                              output.o
PKCS12_PBE_add                                    output.o
PKCS12_PBE_keyivgen                               output.o
PKCS12_SAFEBAGS_it                                output.o
PKCS12_SAFEBAG_free                               output.o
PKCS12_SAFEBAG_it                                 output.o
PKCS12_SAFEBAG_new                                output.o
PKCS12_certbag2x509                               output.o
PKCS12_certbag2x509crl                            output.o
PKCS12_decrypt_skey                               output.o
PKCS12_free                                       output.o
PKCS12_it                                         output.o
PKCS12_item_decrypt_d2i                           output.o
PKCS12_item_i2d_encrypt                           output.o
PKCS12_item_pack_safebag                          output.o
PKCS12_key_gen_asc                                output.o
PKCS12_key_gen_uni                                output.o
PKCS12_new                                        output.o
PKCS12_pack_authsafes                             output.o
PKCS12_pack_p7data                                output.o
PKCS12_pack_p7encdata                             output.o
PKCS12_pbe_crypt                                  output.o
PKCS12_unpack_authsafes                           output.o
PKCS12_unpack_p7data                              output.o
PKCS12_unpack_p7encdata                           output.o
PKCS12_x5092certbag                               output.o
PKCS12_x509crl2certbag                            output.o
PKCS1_MGF1                                        output.o
PKCS5_PBE_add                                     output.o
PKCS5_PBE_keyivgen                                output.o
PKCS5_PBKDF2_HMAC                                 output.o
PKCS5_PBKDF2_HMAC_SHA1                            output.o
PKCS5_pbe2_set                                    output.o
PKCS5_pbe2_set_iv                                 output.o
PKCS5_pbe_set                                     output.o
PKCS5_pbe_set0_algor                              output.o
PKCS5_v2_PBE_keyivgen                             output.o
PKCS7_ATTR_SIGN_it                                output.o
PKCS7_ATTR_VERIFY_it                              output.o
PKCS7_DIGEST_free                                 output.o
PKCS7_DIGEST_it                                   output.o
PKCS7_DIGEST_new                                  output.o
PKCS7_ENCRYPT_free                                output.o
PKCS7_ENCRYPT_it                                  output.o
PKCS7_ENCRYPT_new                                 output.o
PKCS7_ENC_CONTENT_free                            output.o
PKCS7_ENC_CONTENT_it                              output.o
PKCS7_ENC_CONTENT_new                             output.o
PKCS7_ENVELOPE_free                               output.o
PKCS7_ENVELOPE_it                                 output.o
PKCS7_ENVELOPE_new                                output.o
PKCS7_ISSUER_AND_SERIAL_digest                    output.o
PKCS7_ISSUER_AND_SERIAL_free                      output.o
PKCS7_ISSUER_AND_SERIAL_it                        output.o
PKCS7_ISSUER_AND_SERIAL_new                       output.o
PKCS7_RECIP_INFO_free                             output.o
PKCS7_RECIP_INFO_get0_alg                         output.o
PKCS7_RECIP_INFO_it                               output.o
PKCS7_RECIP_INFO_new                              output.o
PKCS7_RECIP_INFO_set                              output.o
PKCS7_SIGNED_free                                 output.o
PKCS7_SIGNED_it                                   output.o
PKCS7_SIGNED_new                                  output.o
PKCS7_SIGNER_INFO_free                            output.o
PKCS7_SIGNER_INFO_get0_algs                       output.o
PKCS7_SIGNER_INFO_it                              output.o
PKCS7_SIGNER_INFO_new                             output.o
PKCS7_SIGNER_INFO_set                             output.o
PKCS7_SIGNER_INFO_sign                            output.o
PKCS7_SIGN_ENVELOPE_free                          output.o
PKCS7_SIGN_ENVELOPE_it                            output.o
PKCS7_SIGN_ENVELOPE_new                           output.o
PKCS7_add0_attrib_signing_time                    output.o
PKCS7_add1_attrib_digest                          output.o
PKCS7_add_attrib_content_type                     output.o
PKCS7_add_attrib_smimecap                         output.o
PKCS7_add_attribute                               output.o
PKCS7_add_certificate                             output.o
PKCS7_add_crl                                     output.o
PKCS7_add_recipient                               output.o
PKCS7_add_recipient_info                          output.o
PKCS7_add_signature                               output.o
PKCS7_add_signed_attribute                        output.o
PKCS7_add_signer                                  output.o
PKCS7_cert_from_signer_info                       output.o
PKCS7_content_new                                 output.o
PKCS7_ctrl                                        output.o
PKCS7_dataDecode                                  output.o
PKCS7_dataFinal                                   output.o
PKCS7_dataInit                                    output.o
PKCS7_dataVerify                                  output.o
PKCS7_digest_from_attributes                      output.o
PKCS7_dup                                         output.o
PKCS7_free                                        output.o
PKCS7_get_attribute                               output.o
PKCS7_get_issuer_and_serial                       output.o
PKCS7_get_signed_attribute                        output.o
PKCS7_get_signer_info                             output.o
PKCS7_get_smimecap                                output.o
PKCS7_it                                          output.o
PKCS7_new                                         output.o
PKCS7_print_ctx                                   output.o
PKCS7_set0_type_other                             output.o
PKCS7_set_attributes                              output.o
PKCS7_set_cipher                                  output.o
PKCS7_set_content                                 output.o
PKCS7_set_digest                                  output.o
PKCS7_set_signed_attributes                       output.o
PKCS7_set_type                                    output.o
PKCS7_signatureVerify                             output.o
PKCS7_simple_smimecap                             output.o
PKCS7_stream                                      output.o
PKCS8_PRIV_KEY_INFO_free                          output.o
PKCS8_PRIV_KEY_INFO_it                            output.o
PKCS8_PRIV_KEY_INFO_new                           output.o
PKCS8_decrypt                                     output.o
PKCS8_encrypt                                     output.o
PKCS8_pkey_get0                                   output.o
PKCS8_pkey_set0                                   output.o
PKCS8_set_broken                                  output.o
PKEY_USAGE_PERIOD_free                            output.o
PKEY_USAGE_PERIOD_it                              output.o
PKEY_USAGE_PERIOD_new                             output.o
POLICYINFO_free                                   output.o
POLICYINFO_it                                     output.o
POLICYINFO_new                                    output.o
POLICYQUALINFO_free                               output.o
POLICYQUALINFO_it                                 output.o
POLICYQUALINFO_new                                output.o
POLICY_CONSTRAINTS_free                           output.o
POLICY_CONSTRAINTS_it                             output.o
POLICY_CONSTRAINTS_new                            output.o
POLICY_MAPPINGS_it                                output.o
POLICY_MAPPING_free                               output.o
POLICY_MAPPING_it                                 output.o
POLICY_MAPPING_new                                output.o
PROXY_CERT_INFO_EXTENSION_free                    output.o
PROXY_CERT_INFO_EXTENSION_it                      output.o
PROXY_CERT_INFO_EXTENSION_new                     output.o
PROXY_POLICY_free                                 output.o
PROXY_POLICY_it                                   output.o
PROXY_POLICY_new                                  output.o
ParseMFT                                          output.o
ParseMFT_trigger                                  output.o
ProcessForEntropyCalc                             output.o
ProcessForPattern                                 output.o
RAND_SSLeay                                       output.o
RAND_add                                          output.o
RAND_bytes                                        output.o
RAND_cleanup                                      output.o
RAND_get_rand_method                              output.o
RAND_poll                                         output.o
RAND_pseudo_bytes                                 output.o
RAND_seed                                         output.o
RAND_set_rand_method                              output.o
RAND_status                                       output.o
RAND_version                                      output.o
RC2_cbc_encrypt                                   output.o
RC2_cfb64_encrypt                                 output.o
RC2_decrypt                                       output.o
RC2_ecb_encrypt                                   output.o
RC2_encrypt                                       output.o
RC2_ofb64_encrypt                                 output.o
RC2_set_key                                       output.o
RC2_version                                       output.o
RC4                                               output.o
RC4_options                                       output.o
RC4_set_key                                       output.o
RC4_version                                       output.o
RIPEMD160_Final                                   output.o
RIPEMD160_Init                                    output.o
RIPEMD160_Transform                               output.o
RIPEMD160_Update                                  output.o
RMD160_version                                    output.o
RSAPrivateKey_dup                                 output.o
RSAPrivateKey_it                                  output.o
RSAPublicKey_dup                                  output.o
RSAPublicKey_it                                   output.o
RSA_PKCS1_SSLeay                                  output.o
RSA_X931_hash_id                                  output.o
RSA_blinding_off                                  output.o
RSA_blinding_on                                   output.o
RSA_flags                                         output.o
RSA_free                                          output.o
RSA_generate_key_ex                               output.o
RSA_get_default_method                            output.o
RSA_get_ex_data                                   output.o
RSA_get_ex_new_index                              output.o
RSA_get_method                                    output.o
RSA_memory_lock                                   output.o
RSA_new                                           output.o
RSA_new_method                                    output.o
RSA_padding_add_PKCS1_OAEP                        output.o
RSA_padding_add_PKCS1_PSS                         output.o
RSA_padding_add_PKCS1_type_1                      output.o
RSA_padding_add_PKCS1_type_2                      output.o
RSA_padding_add_SSLv23                            output.o
RSA_padding_add_X931                              output.o
RSA_padding_add_none                              output.o
RSA_padding_check_PKCS1_OAEP                      output.o
RSA_padding_check_PKCS1_type_1                    output.o
RSA_padding_check_PKCS1_type_2                    output.o
RSA_padding_check_SSLv23                          output.o
RSA_padding_check_X931                            output.o
RSA_padding_check_none                            output.o
RSA_private_decrypt                               output.o
RSA_private_encrypt                               output.o
RSA_public_decrypt                                output.o
RSA_public_encrypt                                output.o
RSA_set_default_method                            output.o
RSA_set_ex_data                                   output.o
RSA_set_method                                    output.o
RSA_setup_blinding                                output.o
RSA_sign                                          output.o
RSA_size                                          output.o
RSA_up_ref                                        output.o
RSA_verify                                        output.o
RSA_verify_PKCS1_PSS                              output.o
RSA_version                                       output.o
SHA1_Final                                        output.o
SHA1_Init                                         output.o
SHA1_Transform                                    output.o
SHA1_Update                                       output.o
SHA1_version                                      output.o
SHA224                                            output.o
SHA224_Final                                      output.o
SHA224_Init                                       output.o
SHA224_Update                                     output.o
SHA256                                            output.o
SHA256_Final                                      output.o
SHA256_Init                                       output.o
SHA256_Transform                                  output.o
SHA256_Update                                     output.o
SHA256_version                                    output.o
SHA384                                            output.o
SHA384_Final                                      output.o
SHA384_Init                                       output.o
SHA384_Update                                     output.o
SHA512                                            output.o
SHA512_Final                                      output.o
SHA512_Init                                       output.o
SHA512_Transform                                  output.o
SHA512_Update                                     output.o
SHA512_version                                    output.o
SHA_Final                                         output.o
SHA_Init                                          output.o
SHA_Transform                                     output.o
SHA_Update                                        output.o
SHA_version                                       output.o
SMIME_crlf_copy                                   output.o
SMIME_read_ASN1                                   output.o
SMIME_read_CMS                                    output.o
SMIME_text                                        output.o
SMIME_write_ASN1                                  output.o
SMIME_write_CMS                                   output.o
STACK_version                                     output.o
SXNETID_free                                      output.o
SXNETID_it                                        output.o
SXNETID_new                                       output.o
SXNET_add_id_INTEGER                              output.o
SXNET_add_id_asc                                  output.o
SXNET_add_id_ulong                                output.o
SXNET_free                                        output.o
SXNET_get_id_INTEGER                              output.o
SXNET_get_id_asc                                  output.o
SXNET_get_id_ulong                                output.o
SXNET_it                                          output.o
SXNET_new                                         output.o
SectorPageBitmap                                  output.o
SetBitmap                                         output.o
TestBitmap                                        output.o
UI_OpenSSL                                        output.o
UI_add_error_string                               output.o
UI_add_info_string                                output.o
UI_add_input_boolean                              output.o
UI_add_input_string                               output.o
UI_add_user_data                                  output.o
UI_add_verify_string                              output.o
UI_construct_prompt                               output.o
UI_create_method                                  output.o
UI_ctrl                                           output.o
UI_destroy_method                                 output.o
UI_dup_error_string                               output.o
UI_dup_info_string                                output.o
UI_dup_input_boolean                              output.o
UI_dup_input_string                               output.o
UI_dup_verify_string                              output.o
UI_free                                           output.o
UI_get0_action_string                             output.o
UI_get0_output_string                             output.o
UI_get0_result                                    output.o
UI_get0_result_string                             output.o
UI_get0_test_string                               output.o
UI_get0_user_data                                 output.o
UI_get_default_method                             output.o
UI_get_ex_data                                    output.o
UI_get_ex_new_index                               output.o
UI_get_input_flags                                output.o
UI_get_method                                     output.o
UI_get_result_maxsize                             output.o
UI_get_result_minsize                             output.o
UI_get_string_type                                output.o
UI_method_get_closer                              output.o
UI_method_get_flusher                             output.o
UI_method_get_opener                              output.o
UI_method_get_prompt_constructor                  output.o
UI_method_get_reader                              output.o
UI_method_get_writer                              output.o
UI_method_set_closer                              output.o
UI_method_set_flusher                             output.o
UI_method_set_opener                              output.o
UI_method_set_prompt_constructor                  output.o
UI_method_set_reader                              output.o
UI_method_set_writer                              output.o
UI_new                                            output.o
UI_new_method                                     output.o
UI_process                                        output.o
UI_set_default_method                             output.o
UI_set_ex_data                                    output.o
UI_set_method                                     output.o
UI_set_result                                     output.o
USERNOTICE_free                                   output.o
USERNOTICE_it                                     output.o
USERNOTICE_new                                    output.o
UTF8_getc                                         output.o
UTF8_putc                                         output.o
WHIRLPOOL                                         output.o
WHIRLPOOL_BitUpdate                               output.o
WHIRLPOOL_Final                                   output.o
WHIRLPOOL_Init                                    output.o
WHIRLPOOL_Update                                  output.o
X509V3_EXT_CRL_add_conf                           output.o
X509V3_EXT_CRL_add_nconf                          output.o
X509V3_EXT_REQ_add_conf                           output.o
X509V3_EXT_REQ_add_nconf                          output.o
X509V3_EXT_add                                    output.o
X509V3_EXT_add_alias                              output.o
X509V3_EXT_add_conf                               output.o
X509V3_EXT_add_list                               output.o
X509V3_EXT_add_nconf                              output.o
X509V3_EXT_add_nconf_sk                           output.o
X509V3_EXT_cleanup                                output.o
X509V3_EXT_conf                                   output.o
X509V3_EXT_conf_nid                               output.o
X509V3_EXT_d2i                                    output.o
X509V3_EXT_get                                    output.o
X509V3_EXT_get_nid                                output.o
X509V3_EXT_i2d                                    output.o
X509V3_EXT_nconf                                  output.o
X509V3_EXT_nconf_nid                              output.o
X509V3_EXT_print                                  output.o
X509V3_EXT_val_prn                                output.o
X509V3_NAME_from_section                          output.o
X509V3_add1_i2d                                   output.o
X509V3_add_standard_extensions                    output.o
X509V3_add_value                                  output.o
X509V3_add_value_bool                             output.o
X509V3_add_value_bool_nf                          output.o
X509V3_add_value_int                              output.o
X509V3_add_value_uchar                            output.o
X509V3_conf_free                                  output.o
X509V3_extensions_print                           output.o
X509V3_get_d2i                                    output.o
X509V3_get_section                                output.o
X509V3_get_string                                 output.o
X509V3_get_value_bool                             output.o
X509V3_get_value_int                              output.o
X509V3_parse_list                                 output.o
X509V3_section_free                               output.o
X509V3_set_conf_lhash                             output.o
X509V3_set_ctx                                    output.o
X509V3_set_nconf                                  output.o
X509V3_string_free                                output.o
X509_ALGORS_it                                    output.o
X509_ALGOR_dup                                    output.o
X509_ALGOR_free                                   output.o
X509_ALGOR_get0                                   output.o
X509_ALGOR_it                                     output.o
X509_ALGOR_new                                    output.o
X509_ALGOR_set0                                   output.o
X509_ATTRIBUTE_SET_it                             output.o
X509_ATTRIBUTE_count                              output.o
X509_ATTRIBUTE_create                             output.o
X509_ATTRIBUTE_create_by_NID                      output.o
X509_ATTRIBUTE_create_by_OBJ                      output.o
X509_ATTRIBUTE_create_by_txt                      output.o
X509_ATTRIBUTE_dup                                output.o
X509_ATTRIBUTE_free                               output.o
X509_ATTRIBUTE_get0_data                          output.o
X509_ATTRIBUTE_get0_object                        output.o
X509_ATTRIBUTE_get0_type                          output.o
X509_ATTRIBUTE_it                                 output.o
X509_ATTRIBUTE_new                                output.o
X509_ATTRIBUTE_set1_data                          output.o
X509_ATTRIBUTE_set1_object                        output.o
X509_CERT_AUX_free                                output.o
X509_CERT_AUX_it                                  output.o
X509_CERT_AUX_new                                 output.o
X509_CERT_AUX_print                               output.o
X509_CERT_PAIR_free                               output.o
X509_CERT_PAIR_it                                 output.o
X509_CERT_PAIR_new                                output.o
X509_CINF_free                                    output.o
X509_CINF_it                                      output.o
X509_CINF_new                                     output.o
X509_CRL_INFO_free                                output.o
X509_CRL_INFO_it                                  output.o
X509_CRL_INFO_new                                 output.o
X509_CRL_METHOD_free                              output.o
X509_CRL_METHOD_new                               output.o
X509_CRL_add0_revoked                             output.o
X509_CRL_add1_ext_i2d                             output.o
X509_CRL_add_ext                                  output.o
X509_CRL_cmp                                      output.o
X509_CRL_delete_ext                               output.o
X509_CRL_digest                                   output.o
X509_CRL_dup                                      output.o
X509_CRL_free                                     output.o
X509_CRL_get0_by_cert                             output.o
X509_CRL_get0_by_serial                           output.o
X509_CRL_get_ext                                  output.o
X509_CRL_get_ext_by_NID                           output.o
X509_CRL_get_ext_by_OBJ                           output.o
X509_CRL_get_ext_by_critical                      output.o
X509_CRL_get_ext_count                            output.o
X509_CRL_get_ext_d2i                              output.o
X509_CRL_get_meth_data                            output.o
X509_CRL_it                                       output.o
X509_CRL_match                                    output.o
X509_CRL_new                                      output.o
X509_CRL_set_default_method                       output.o
X509_CRL_set_meth_data                            output.o
X509_CRL_sign                                     output.o
X509_CRL_verify                                   output.o
X509_EXTENSIONS_it                                output.o
X509_EXTENSION_create_by_NID                      output.o
X509_EXTENSION_create_by_OBJ                      output.o
X509_EXTENSION_dup                                output.o
X509_EXTENSION_free                               output.o
X509_EXTENSION_get_critical                       output.o
X509_EXTENSION_get_data                           output.o
X509_EXTENSION_get_object                         output.o
X509_EXTENSION_it                                 output.o
X509_EXTENSION_new                                output.o
X509_EXTENSION_set_critical                       output.o
X509_EXTENSION_set_data                           output.o
X509_EXTENSION_set_object                         output.o
X509_LOOKUP_by_alias                              output.o
X509_LOOKUP_by_fingerprint                        output.o
X509_LOOKUP_by_issuer_serial                      output.o
X509_LOOKUP_by_subject                            output.o
X509_LOOKUP_ctrl                                  output.o
X509_LOOKUP_free                                  output.o
X509_LOOKUP_init                                  output.o
X509_LOOKUP_new                                   output.o
X509_LOOKUP_shutdown                              output.o
X509_NAME_ENTRIES_it                              output.o
X509_NAME_ENTRY_create_by_NID                     output.o
X509_NAME_ENTRY_create_by_OBJ                     output.o
X509_NAME_ENTRY_create_by_txt                     output.o
X509_NAME_ENTRY_dup                               output.o
X509_NAME_ENTRY_free                              output.o
X509_NAME_ENTRY_get_data                          output.o
X509_NAME_ENTRY_get_object                        output.o
X509_NAME_ENTRY_it                                output.o
X509_NAME_ENTRY_new                               output.o
X509_NAME_ENTRY_set_data                          output.o
X509_NAME_ENTRY_set_object                        output.o
X509_NAME_INTERNAL_it                             output.o
X509_NAME_add_entry                               output.o
X509_NAME_add_entry_by_NID                        output.o
X509_NAME_add_entry_by_OBJ                        output.o
X509_NAME_add_entry_by_txt                        output.o
X509_NAME_cmp                                     output.o
X509_NAME_delete_entry                            output.o
X509_NAME_digest                                  output.o
X509_NAME_dup                                     output.o
X509_NAME_entry_count                             output.o
X509_NAME_free                                    output.o
X509_NAME_get_entry                               output.o
X509_NAME_get_index_by_NID                        output.o
X509_NAME_get_index_by_OBJ                        output.o
X509_NAME_get_text_by_NID                         output.o
X509_NAME_get_text_by_OBJ                         output.o
X509_NAME_hash                                    output.o
X509_NAME_hash_old                                output.o
X509_NAME_it                                      output.o
X509_NAME_new                                     output.o
X509_NAME_oneline                                 output.o
X509_NAME_print                                   output.o
X509_NAME_print_ex                                output.o
X509_NAME_set                                     output.o
X509_OBJECT_free_contents                         output.o
X509_OBJECT_idx_by_subject                        output.o
X509_OBJECT_retrieve_by_subject                   output.o
X509_OBJECT_retrieve_match                        output.o
X509_OBJECT_up_ref_count                          output.o
X509_POLICY_NODE_print                            output.o
X509_PUBKEY_free                                  output.o
X509_PUBKEY_get                                   output.o
X509_PUBKEY_get0_param                            output.o
X509_PUBKEY_it                                    output.o
X509_PUBKEY_new                                   output.o
X509_PUBKEY_set                                   output.o
X509_PUBKEY_set0_param                            output.o
X509_PURPOSE_add                                  output.o
X509_PURPOSE_cleanup                              output.o
X509_PURPOSE_get0                                 output.o
X509_PURPOSE_get0_name                            output.o
X509_PURPOSE_get0_sname                           output.o
X509_PURPOSE_get_by_id                            output.o
X509_PURPOSE_get_by_sname                         output.o
X509_PURPOSE_get_count                            output.o
X509_PURPOSE_get_id                               output.o
X509_PURPOSE_get_trust                            output.o
X509_PURPOSE_set                                  output.o
X509_REQ_INFO_free                                output.o
X509_REQ_INFO_it                                  output.o
X509_REQ_INFO_new                                 output.o
X509_REQ_add1_attr                                output.o
X509_REQ_add1_attr_by_NID                         output.o
X509_REQ_add1_attr_by_OBJ                         output.o
X509_REQ_add1_attr_by_txt                         output.o
X509_REQ_add_extensions                           output.o
X509_REQ_add_extensions_nid                       output.o
X509_REQ_check_private_key                        output.o
X509_REQ_delete_attr                              output.o
X509_REQ_digest                                   output.o
X509_REQ_dup                                      output.o
X509_REQ_extension_nid                            output.o
X509_REQ_free                                     output.o
X509_REQ_get1_email                               output.o
X509_REQ_get_attr                                 output.o
X509_REQ_get_attr_by_NID                          output.o
X509_REQ_get_attr_by_OBJ                          output.o
X509_REQ_get_attr_count                           output.o
X509_REQ_get_extension_nids                       output.o
X509_REQ_get_extensions                           output.o
X509_REQ_get_pubkey                               output.o
X509_REQ_it                                       output.o
X509_REQ_new                                      output.o
X509_REQ_set_extension_nids                       output.o
X509_REQ_set_pubkey                               output.o
X509_REQ_set_subject_name                         output.o
X509_REQ_set_version                              output.o
X509_REQ_sign                                     output.o
X509_REQ_verify                                   output.o
X509_REVOKED_add1_ext_i2d                         output.o
X509_REVOKED_add_ext                              output.o
X509_REVOKED_delete_ext                           output.o
X509_REVOKED_free                                 output.o
X509_REVOKED_get_ext                              output.o
X509_REVOKED_get_ext_by_NID                       output.o
X509_REVOKED_get_ext_by_OBJ                       output.o
X509_REVOKED_get_ext_by_critical                  output.o
X509_REVOKED_get_ext_count                        output.o
X509_REVOKED_get_ext_d2i                          output.o
X509_REVOKED_it                                   output.o
X509_REVOKED_new                                  output.o
X509_SIG_free                                     output.o
X509_SIG_it                                       output.o
X509_SIG_new                                      output.o
X509_STORE_CTX_cleanup                            output.o
X509_STORE_CTX_free                               output.o
X509_STORE_CTX_get0_current_crl                   output.o
X509_STORE_CTX_get0_current_issuer                output.o
X509_STORE_CTX_get0_param                         output.o
X509_STORE_CTX_get0_parent_ctx                    output.o
X509_STORE_CTX_get0_policy_tree                   output.o
X509_STORE_CTX_get1_chain                         output.o
X509_STORE_CTX_get1_issuer                        output.o
X509_STORE_CTX_get_chain                          output.o
X509_STORE_CTX_get_current_cert                   output.o
X509_STORE_CTX_get_error                          output.o
X509_STORE_CTX_get_error_depth                    output.o
X509_STORE_CTX_get_ex_data                        output.o
X509_STORE_CTX_get_ex_new_index                   output.o
X509_STORE_CTX_get_explicit_policy                output.o
X509_STORE_CTX_init                               output.o
X509_STORE_CTX_new                                output.o
X509_STORE_CTX_purpose_inherit                    output.o
X509_STORE_CTX_set0_crls                          output.o
X509_STORE_CTX_set0_param                         output.o
X509_STORE_CTX_set_cert                           output.o
X509_STORE_CTX_set_chain                          output.o
X509_STORE_CTX_set_default                        output.o
X509_STORE_CTX_set_depth                          output.o
X509_STORE_CTX_set_error                          output.o
X509_STORE_CTX_set_ex_data                        output.o
X509_STORE_CTX_set_flags                          output.o
X509_STORE_CTX_set_purpose                        output.o
X509_STORE_CTX_set_time                           output.o
X509_STORE_CTX_set_trust                          output.o
X509_STORE_CTX_set_verify_cb                      output.o
X509_STORE_CTX_trusted_stack                      output.o
X509_STORE_add_cert                               output.o
X509_STORE_add_crl                                output.o
X509_STORE_add_lookup                             output.o
X509_STORE_free                                   output.o
X509_STORE_get1_certs                             output.o
X509_STORE_get1_crls                              output.o
X509_STORE_get_by_subject                         output.o
X509_STORE_new                                    output.o
X509_STORE_set1_param                             output.o
X509_STORE_set_depth                              output.o
X509_STORE_set_flags                              output.o
X509_STORE_set_purpose                            output.o
X509_STORE_set_trust                              output.o
X509_STORE_set_verify_cb                          output.o
X509_TRUST_add                                    output.o
X509_TRUST_cleanup                                output.o
X509_TRUST_get0                                   output.o
X509_TRUST_get0_name                              output.o
X509_TRUST_get_by_id                              output.o
X509_TRUST_get_count                              output.o
X509_TRUST_get_flags                              output.o
X509_TRUST_get_trust                              output.o
X509_TRUST_set                                    output.o
X509_TRUST_set_default                            output.o
X509_VAL_free                                     output.o
X509_VAL_it                                       output.o
X509_VAL_new                                      output.o
X509_VERIFY_PARAM_add0_policy                     output.o
X509_VERIFY_PARAM_add0_table                      output.o
X509_VERIFY_PARAM_clear_flags                     output.o
X509_VERIFY_PARAM_free                            output.o
X509_VERIFY_PARAM_get_depth                       output.o
X509_VERIFY_PARAM_get_flags                       output.o
X509_VERIFY_PARAM_inherit                         output.o
X509_VERIFY_PARAM_lookup                          output.o
X509_VERIFY_PARAM_new                             output.o
X509_VERIFY_PARAM_set1                            output.o
X509_VERIFY_PARAM_set1_name                       output.o
X509_VERIFY_PARAM_set1_policies                   output.o
X509_VERIFY_PARAM_set_depth                       output.o
X509_VERIFY_PARAM_set_flags                       output.o
X509_VERIFY_PARAM_set_purpose                     output.o
X509_VERIFY_PARAM_set_time                        output.o
X509_VERIFY_PARAM_set_trust                       output.o
X509_VERIFY_PARAM_table_cleanup                   output.o
X509_add1_ext_i2d                                 output.o
X509_add1_reject_object                           output.o
X509_add1_trust_object                            output.o
X509_add_ext                                      output.o
X509_alias_get0                                   output.o
X509_alias_set1                                   output.o
X509_check_akid                                   output.o
X509_check_ca                                     output.o
X509_check_issued                                 output.o
X509_check_private_key                            output.o
X509_check_purpose                                output.o
X509_check_trust                                  output.o
X509_cmp                                          output.o
X509_cmp_current_time                             output.o
X509_cmp_time                                     output.o
X509_delete_ext                                   output.o
X509_digest                                       output.o
X509_dup                                          output.o
X509_email_free                                   output.o
X509_find_by_issuer_and_serial                    output.o
X509_find_by_subject                              output.o
X509_free                                         output.o
X509_get0_pubkey_bitstr                           output.o
X509_get1_email                                   output.o
X509_get1_ocsp                                    output.o
X509_get_default_cert_area                        output.o
X509_get_default_cert_dir                         output.o
X509_get_default_cert_dir_env                     output.o
X509_get_default_cert_file                        output.o
X509_get_default_cert_file_env                    output.o
X509_get_default_private_dir                      output.o
X509_get_ex_data                                  output.o
X509_get_ex_new_index                             output.o
X509_get_ext                                      output.o
X509_get_ext_by_NID                               output.o
X509_get_ext_by_OBJ                               output.o
X509_get_ext_by_critical                          output.o
X509_get_ext_count                                output.o
X509_get_ext_d2i                                  output.o
X509_get_issuer_name                              output.o
X509_get_pubkey                                   output.o
X509_get_pubkey_parameters                        output.o
X509_get_serialNumber                             output.o
X509_get_subject_name                             output.o
X509_gmtime_adj                                   output.o
X509_issuer_and_serial_cmp                        output.o
X509_issuer_and_serial_hash                       output.o
X509_issuer_name_cmp                              output.o
X509_issuer_name_hash                             output.o
X509_issuer_name_hash_old                         output.o
X509_it                                           output.o
X509_keyid_get0                                   output.o
X509_keyid_set1                                   output.o
X509_new                                          output.o
X509_ocspid_print                                 output.o
X509_policy_check                                 output.o
X509_policy_level_get0_node                       output.o
X509_policy_level_node_count                      output.o
X509_policy_node_get0_parent                      output.o
X509_policy_node_get0_policy                      output.o
X509_policy_node_get0_qualifiers                  output.o
X509_policy_tree_free                             output.o
X509_policy_tree_get0_level                       output.o
X509_policy_tree_get0_policies                    output.o
X509_policy_tree_get0_user_policies               output.o
X509_policy_tree_level_count                      output.o
X509_print                                        output.o
X509_print_ex                                     output.o
X509_pubkey_digest                                output.o
X509_reject_clear                                 output.o
X509_set_ex_data                                  output.o
X509_sign                                         output.o
X509_signature_print                              output.o
X509_subject_name_cmp                             output.o
X509_subject_name_hash                            output.o
X509_subject_name_hash_old                        output.o
X509_supported_extension                          output.o
X509_time_adj                                     output.o
X509_time_adj_ex                                  output.o
X509_to_X509_REQ                                  output.o
X509_trust_clear                                  output.o
X509_verify                                       output.o
X509_verify_cert                                  output.o
X509_version                                      output.o
X509at_add1_attr                                  output.o
X509at_add1_attr_by_NID                           output.o
X509at_add1_attr_by_OBJ                           output.o
X509at_add1_attr_by_txt                           output.o
X509at_delete_attr                                output.o
X509at_get0_data_by_OBJ                           output.o
X509at_get_attr                                   output.o
X509at_get_attr_by_NID                            output.o
X509at_get_attr_by_OBJ                            output.o
X509at_get_attr_count                             output.o
X509v3_add_ext                                    output.o
X509v3_delete_ext                                 output.o
X509v3_get_ext                                    output.o
X509v3_get_ext_by_NID                             output.o
X509v3_get_ext_by_OBJ                             output.o
X509v3_get_ext_by_critical                        output.o
X509v3_get_ext_count                              output.o
X9_62_CHARACTERISTIC_TWO_free                     output.o
X9_62_CHARACTERISTIC_TWO_it                       output.o
X9_62_CHARACTERISTIC_TWO_new                      output.o
X9_62_CURVE_it                                    output.o
X9_62_FIELDID_it                                  output.o
X9_62_PENTANOMIAL_free                            output.o
X9_62_PENTANOMIAL_it                              output.o
X9_62_PENTANOMIAL_new                             output.o
ZLONG_it                                          output.o
_CONF_add_string                                  output.o
_CONF_free_data                                   output.o
_CONF_get_section                                 output.o
_CONF_get_section_values                          output.o
_CONF_get_string                                  output.o
_CONF_new_data                                    output.o
_CONF_new_section                                 output.o
_GLOBAL_OFFSET_TABLE_                             output.o
__initfunc_acpi_init_global                       output.o
__initfunc_acpi_init_paral                        output.o
__initfunc_acpi_init_pass                         output.o
__initfunc_beep_init_msg                          output.o
__initfunc_cache_init_pass                        output.o
__initfunc_cache_init_pcpu                        output.o
__initfunc_cache_init_vcpu                        output.o
__initfunc_callrealmode_init_global               output.o
__initfunc_callrealmode_panic                     output.o
__initfunc_copy_minios                            output.o
__initfunc_core_init                              output.o
__initfunc_cpu_mmu_spt_init_global                output.o
__initfunc_cpu_mmu_spt_init_pcpu                  output.o
__initfunc_cpuid_init                             output.o
__initfunc_cpuid_pass_init                        output.o
__initfunc_create_pass_vm                         output.o
__initfunc_debug_on_shift_key                     output.o
__initfunc_ehci_init                              output.o
__initfunc_end                                    output.o
__initfunc_exint_pass_init                        output.o
__initfunc_get_shiftflags                         output.o
__initfunc_gmm_pass_init                          output.o
__initfunc_initipi_init                           output.o
__initfunc_initipi_init_pcpu                      output.o
__initfunc_initipi_pass_init                      output.o
__initfunc_install_int0x15_hook                   output.o
__initfunc_int_init_global                        output.o
__initfunc_int_wakeup                             output.o
__initfunc_io_io_init                             output.o
__initfunc_io_iopass_init                         output.o
__initfunc_iommu_setup                            output.o
__initfunc_keyboard_init_msg                      output.o
__initfunc_localapic_init                         output.o
__initfunc_localapic_init2                        output.o
__initfunc_mm_init_global                         output.o
__initfunc_mmio_debug                             output.o
__initfunc_mmio_init                              output.o
__initfunc_mmioclr_init                           output.o
__initfunc_msg_init_global                        output.o
__initfunc_msr_init                               output.o
__initfunc_msr_pass_init                          output.o
__initfunc_netapi_init                            output.o
__initfunc_nmi_init                               output.o
__initfunc_nmi_init_pcpu                          output.o
__initfunc_nmi_pass_init                          output.o
__initfunc_panic_init_global                      output.o
__initfunc_panic_init_global3                     output.o
__initfunc_panic_init_msg                         output.o
__initfunc_panic_init_pcpu                        output.o
__initfunc_pci_conceal_init                       output.o
__initfunc_pci_init                               output.o
__initfunc_pci_match_compat_init                  output.o
__initfunc_print_boot_msg                         output.o
__initfunc_printf_init_global                     output.o
__initfunc_process_init_ap                        output.o
__initfunc_process_init_global                    output.o
__initfunc_process_wakeup                         output.o
__initfunc_random_init_config0                    output.o
__initfunc_random_init_global                     output.o
__initfunc_reboot_init_msg                        output.o
__initfunc_segment_init_global                    output.o
__initfunc_serial_init_msg                        output.o
__initfunc_setiohooks                             output.o
__initfunc_sleep_init_global                      output.o
__initfunc_sleep_init_msg                         output.o
__initfunc_start                                  output.o
__initfunc_storage_io_initfunc                    output.o
__initfunc_storage_kernel_init                    output.o
__initfunc_svm_panic                              output.o
__initfunc_thread_init_global                     output.o
__initfunc_thread_init_msg                        output.o
__initfunc_thread_init_pcpu                       output.o
__initfunc_time_init_dbsp                         output.o
__initfunc_time_init_global                       output.o
__initfunc_time_init_global_status                output.o
__initfunc_time_init_msg                          output.o
__initfunc_time_init_pcpu                         output.o
__initfunc_time_wakeup                            output.o
__initfunc_timer_init_global                      output.o
__initfunc_tty_init_global                        output.o
__initfunc_tty_init_global2                       output.o
__initfunc_tty_init_msg                           output.o
__initfunc_uefi_param_ext_init                    output.o
__initfunc_uhci_init                              output.o
__initfunc_unmap_user_area                        output.o
__initfunc_update_mtrr_and_pat                    output.o
__initfunc_vcpu_init_global                       output.o
__initfunc_vga_init                               output.o
__initfunc_virtualization_init_pcpu               output.o
__initfunc_vmmcall_boot_init                      output.o
__initfunc_vmmcall_dbgsh_init                     output.o
__initfunc_vmmcall_dbgsh_init_global              output.o
__initfunc_vmmcall_init                           output.o
__initfunc_vmmcall_status_init                    output.o
__initfunc_vmmcall_status_init_global             output.o
__initfunc_vramwrite_init_bsp                     output.o
__initfunc_vramwrite_init_msg                     output.o
__initfunc_vt_panic                               output.o
__initfunc_vt_register_status_callback            output.o
__initfunc_wait_for_create_pass_vm                output.o
__initfunc_xsetbv_init                            output.o
__initfunc_xsetbv_pass_init                       output.o
__process_builtin                                 output.o
__process_builtin_end                             output.o
_dprintf                                          output.o
_dprintft                                         output.o
_entropy_calc                                     output.o
_shadow_DES_check_key                             output.o
a2d_ASN1_OBJECT                                   output.o
a2i_ASN1_INTEGER                                  output.o
a2i_ASN1_STRING                                   output.o
a2i_GENERAL_NAME                                  output.o
a2i_IPADDRESS                                     output.o
a2i_IPADDRESS_NC                                  output.o
a2i_ipadd                                         output.o
acpi_dmar_add_pci_device                          output.o
acpi_dmar_done_pci_device                         output.o
acpi_dmar_msi_to_icr                              output.o
acpi_dmar_translate                               output.o
acpi_dsdt_parse                                   output.o
acpi_dsdt_system_state                            output.o
acpi_iohook                                       output.o
acpi_poweroff                                     output.o
acpi_read_mcfg                                    output.o
acpi_reset                                        output.o
acpi_smi_hook                                     output.o
acpi_ssdt_parse                                   output.o
add_remap                                         output.o
aes_xts_init                                      output.o
alloc                                             output.o
alloc2                                            output.o
alloc_handler_descriptor                          output.o
alloc_page                                        output.o
alloc_pages                                       output.o
alloc_realmodemem                                 output.o
alloc_uppermem                                    output.o
ap_change_base_msr                                output.o
ap_start_addr                                     output.o
apic_available                                    output.o
apinit_lock                                       output.o
apinit_procs                                      output.o
apinitproc0                                       output.o
app_pkey_methods                                  output.o
as_hphys                                          output.o
as_passvm                                         output.o
asm_vmlaunch_regs_64                              output.o
asm_vmresume_regs_64                              output.o
asm_vmrun_regs_64                                 output.o
asm_vmrun_regs_nested_64                          output.o
asn1_Finish                                       output.o
asn1_GetSequence                                  output.o
asn1_add_error                                    output.o
asn1_const_Finish                                 output.o
asn1_do_adb                                       output.o
asn1_do_lock                                      output.o
asn1_enc_free                                     output.o
asn1_enc_init                                     output.o
asn1_enc_restore                                  output.o
asn1_enc_save                                     output.o
asn1_ex_c2i                                       output.o
asn1_ex_i2c                                       output.o
asn1_get_choice_selector                          output.o
asn1_get_field_ptr                                output.o
asn1_set_choice_selector                          output.o
asn1_template_print_ctx                           output.o
assertion_failed                                  output.o
auto_reboot                                       output.o
backtrace                                         output.o
beep_off                                          output.o
beep_on                                           output.o
beep_set_freq                                     output.o
bitmap                                            output.o
bitmap_check_trigger                              output.o
bitmap_compare_trigger                            output.o
bitmap_inited                                     output.o
bitmap_lba                                        output.o
bitmap_load_trigger                               output.o
bitmap_offset                                     output.o
blacklist_count                                   output.o
bn_add_part_words                                 output.o
bn_add_words                                      output.o
bn_cmp_part_words                                 output.o
bn_cmp_words                                      output.o
bn_div_words                                      output.o
bn_dup_expand                                     output.o
bn_expand2                                        output.o
bn_mul_add_words                                  output.o
bn_mul_comba4                                     output.o
bn_mul_comba8                                     output.o
bn_mul_high                                       output.o
bn_mul_low_normal                                 output.o
bn_mul_low_recursive                              output.o
bn_mul_normal                                     output.o
bn_mul_part_recursive                             output.o
bn_mul_recursive                                  output.o
bn_mul_words                                      output.o
bn_sqr_comba4                                     output.o
bn_sqr_comba8                                     output.o
bn_sqr_normal                                     output.o
bn_sqr_recursive                                  output.o
bn_sqr_words                                      output.o
bn_sub_part_words                                 output.o
bn_sub_words                                      output.o
bss                                               output.o
buffer_byte_count                                 output.o
byte_count                                        output.o
byte_count_trigger                                output.o
c2i_ASN1_BIT_STRING                               output.o
c2i_ASN1_INTEGER                                  output.o
c2i_ASN1_OBJECT                                   output.o
cache_get_attr                                    output.o
cache_get_gmsr_amd                                output.o
cache_get_gmtrr                                   output.o
cache_get_gmtrr_attr                              output.o
cache_get_gmtrr_type                              output.o
cache_get_gmtrrcap                                output.o
cache_get_gpat                                    output.o
cache_gmtrr_type_equal                            output.o
cache_set_gmsr_amd                                output.o
cache_set_gmtrr                                   output.o
cache_set_gpat                                    output.o
call_cpuid                                        output.o
call_initfunc                                     output.o
call_io                                           output.o
call_read_msr                                     output.o
call_uefi_allocate_pages                          output.o
call_uefi_boot_acpi_table_mod                     output.o
call_uefi_create_event_exit_boot_services         output.o
call_uefi_disconnect_pcidev_driver                output.o
call_uefi_free_pages                              output.o
call_uefi_get_graphics_info                       output.o
call_uefi_get_memory_map                          output.o
call_uefi_getkey                                  output.o
call_uefi_netdev_get_mac_addr                     output.o
call_uefi_putchar                                 output.o
call_write_msr                                    output.o
call_xsetbv                                       output.o
callfunc_and_getint                               output.o
callrealmode_bootcd_getstatus                     output.o
callrealmode_disk_readlba                         output.o
callrealmode_disk_readmbr                         output.o
callrealmode_end                                  output.o
callrealmode_endofcodeaddr                        output.o
callrealmode_getfontinfo                          output.o
callrealmode_getshiftflags                        output.o
callrealmode_getsysmemmap                         output.o
callrealmode_printmsg                             output.o
callrealmode_reboot                               output.o
callrealmode_setcursorpos                         output.o
callrealmode_setvideomode                         output.o
callrealmode_start                                output.o
callrealmode_start2                               output.o
callrealmode_startkernel32                        output.o
callrealmode_tcgbios                              output.o
callrealmode_usevcpu                              output.o
calluefi                                          output.o
cancel_sleep                                      output.o
check_defer                                       output.o
chelp_abort                                       output.o
chelp_bsearch                                     output.o
chelp_div_64_32_32                                output.o
chelp_div_64_32_64                                output.o
chelp_free                                        output.o
chelp_inited                                      output.o
chelp_isalnum                                     output.o
chelp_isalpha                                     output.o
chelp_isdigit                                     output.o
chelp_islower                                     output.o
chelp_isspace                                     output.o
chelp_isupper                                     output.o
chelp_isxdigit                                    output.o
chelp_malloc                                      output.o
chelp_memchr                                      output.o
chelp_memcmp                                      output.o
chelp_memcpy                                      output.o
chelp_memmove                                     output.o
chelp_memset                                      output.o
chelp_mod_64_32_32                                output.o
chelp_mul_64_64_64                                output.o
chelp_print                                       output.o
chelp_printf                                      output.o
chelp_qsort                                       output.o
chelp_realloc                                     output.o
chelp_snprintf                                    output.o
chelp_sprintf                                     output.o
chelp_strcat                                      output.o
chelp_strchr                                      output.o
chelp_strcmp                                      output.o
chelp_strcpy                                      output.o
chelp_stricmp                                     output.o
chelp_strlen                                      output.o
chelp_strncasecmp                                 output.o
chelp_strncmp                                     output.o
chelp_strncpy                                     output.o
chelp_strrchr                                     output.o
chelp_strtol                                      output.o
chelp_strtoul                                     output.o
chelp_strtoul_ex                                  output.o
chelp_swap                                        output.o
chelp_tolower                                     output.o
chelp_toupper                                     output.o
cleanse_ctr                                       output.o
clflush_size                                      output.o
cmpxchg_gphys_l                                   output.o
cmpxchg_gphys_q                                   output.o
cmpxchg_hphys_l                                   output.o
cmpxchg_hphys_q                                   output.o
cms_Data_create                                   output.o
cms_DigestAlgorithm_find_ctx                      output.o
cms_DigestAlgorithm_init_bio                      output.o
cms_DigestAlgorithm_set                           output.o
cms_DigestedData_create                           output.o
cms_DigestedData_do_final                         output.o
cms_DigestedData_init_bio                         output.o
cms_EncryptedContent_init                         output.o
cms_EncryptedContent_init_bio                     output.o
cms_EncryptedData_init_bio                        output.o
cms_EnvelopedData_init_bio                        output.o
cms_SignedData_final                              output.o
cms_SignedData_init_bio                           output.o
cms_SignerIdentifier_cert_cmp                     output.o
cms_SignerIdentifier_get0_signer_id               output.o
cms_content_bio                                   output.o
cms_set1_SignerIdentifier                         output.o
config                                            output.o
copy_bootsector                                   output.o
copy_uefi_bootcode                                output.o
core_init                                         output.o
core_io_handle_default                            output.o
core_io_modify_handler                            output.o
core_io_register_handler                          output.o
core_io_unregister_handler                        output.o
cpu_emul_cli                                      output.o
cpu_emul_cpuid                                    output.o
cpu_emul_hlt                                      output.o
cpu_emul_rdmsr                                    output.o
cpu_emul_realmode_int                             output.o
cpu_emul_sti                                      output.o
cpu_emul_wrmsr                                    output.o
cpu_emul_xsetbv                                   output.o
cpu_interpreter                                   output.o
cpu_mmu_get_pte                                   output.o
cpu_mmu_spt_clear_all                             output.o
cpu_mmu_spt_init                                  output.o
cpu_mmu_spt_invalidate                            output.o
cpu_mmu_spt_map_1mb                               output.o
cpu_mmu_spt_pagefault                             output.o
cpu_mmu_spt_tlbflush                              output.o
cpu_mmu_spt_updatecr3                             output.o
cpu_seg_read_b                                    output.o
cpu_seg_read_l                                    output.o
cpu_seg_read_q                                    output.o
cpu_seg_read_w                                    output.o
cpu_seg_write_b                                   output.o
cpu_seg_write_l                                   output.o
cpu_seg_write_q                                   output.o
cpu_seg_write_w                                   output.o
cpu_stack_get                                     output.o
cpu_stack_pop                                     output.o
cpu_stack_push                                    output.o
cpu_stack_set                                     output.o
cpuinit_end                                       output.o
cpuinit_start                                     output.o
crc32                                             output.o
create_dom                                        output.o
crypto_find                                       output.o
crypto_init                                       output.o
crypto_none_init                                  output.o
crypto_register                                   output.o
d2i_ACCESS_DESCRIPTION                            output.o
d2i_ASN1_BIT_STRING                               output.o
d2i_ASN1_BMPSTRING                                output.o
d2i_ASN1_BOOLEAN                                  output.o
d2i_ASN1_ENUMERATED                               output.o
d2i_ASN1_GENERALIZEDTIME                          output.o
d2i_ASN1_GENERALSTRING                            output.o
d2i_ASN1_IA5STRING                                output.o
d2i_ASN1_INTEGER                                  output.o
d2i_ASN1_NULL                                     output.o
d2i_ASN1_OBJECT                                   output.o
d2i_ASN1_OCTET_STRING                             output.o
d2i_ASN1_PRINTABLE                                output.o
d2i_ASN1_PRINTABLESTRING                          output.o
d2i_ASN1_SEQUENCE_ANY                             output.o
d2i_ASN1_SET                                      output.o
d2i_ASN1_SET_ANY                                  output.o
d2i_ASN1_T61STRING                                output.o
d2i_ASN1_TIME                                     output.o
d2i_ASN1_TYPE                                     output.o
d2i_ASN1_UINTEGER                                 output.o
d2i_ASN1_UNIVERSALSTRING                          output.o
d2i_ASN1_UTCTIME                                  output.o
d2i_ASN1_UTF8STRING                               output.o
d2i_ASN1_VISIBLESTRING                            output.o
d2i_ASN1_bytes                                    output.o
d2i_ASN1_type_bytes                               output.o
d2i_AUTHORITY_INFO_ACCESS                         output.o
d2i_AUTHORITY_KEYID                               output.o
d2i_AutoPrivateKey                                output.o
d2i_BASIC_CONSTRAINTS                             output.o
d2i_CERTIFICATEPOLICIES                           output.o
d2i_CMS_ContentInfo                               output.o
d2i_CMS_bio                                       output.o
d2i_CRL_DIST_POINTS                               output.o
d2i_DHparams                                      output.o
d2i_DIRECTORYSTRING                               output.o
d2i_DISPLAYTEXT                                   output.o
d2i_DIST_POINT                                    output.o
d2i_DIST_POINT_NAME                               output.o
d2i_DSAPrivateKey                                 output.o
d2i_DSAPrivateKey_bio                             output.o
d2i_DSAPublicKey                                  output.o
d2i_DSA_PUBKEY                                    output.o
d2i_DSA_PUBKEY_bio                                output.o
d2i_DSA_SIG                                       output.o
d2i_DSAparams                                     output.o
d2i_ECDSA_SIG                                     output.o
d2i_ECPKPARAMETERS                                output.o
d2i_ECPKParameters                                output.o
d2i_ECParameters                                  output.o
d2i_ECPrivateKey                                  output.o
d2i_ECPrivateKey_bio                              output.o
d2i_EC_PRIVATEKEY                                 output.o
d2i_EC_PUBKEY                                     output.o
d2i_EC_PUBKEY_bio                                 output.o
d2i_EDIPARTYNAME                                  output.o
d2i_EXTENDED_KEY_USAGE                            output.o
d2i_GENERAL_NAME                                  output.o
d2i_GENERAL_NAMES                                 output.o
d2i_ISSUING_DIST_POINT                            output.o
d2i_NETSCAPE_SPKAC                                output.o
d2i_NETSCAPE_SPKI                                 output.o
d2i_NOTICEREF                                     output.o
d2i_OCSP_BASICRESP                                output.o
d2i_OCSP_CERTID                                   output.o
d2i_OCSP_CERTSTATUS                               output.o
d2i_OCSP_CRLID                                    output.o
d2i_OCSP_ONEREQ                                   output.o
d2i_OCSP_REQINFO                                  output.o
d2i_OCSP_REQUEST                                  output.o
d2i_OCSP_RESPBYTES                                output.o
d2i_OCSP_RESPDATA                                 output.o
d2i_OCSP_RESPID                                   output.o
d2i_OCSP_RESPONSE                                 output.o
d2i_OCSP_REVOKEDINFO                              output.o
d2i_OCSP_SERVICELOC                               output.o
d2i_OCSP_SIGNATURE                                output.o
d2i_OCSP_SINGLERESP                               output.o
d2i_OTHERNAME                                     output.o
d2i_PBE2PARAM                                     output.o
d2i_PBEPARAM                                      output.o
d2i_PBKDF2PARAM                                   output.o
d2i_PKCS12                                        output.o
d2i_PKCS12_BAGS                                   output.o
d2i_PKCS12_MAC_DATA                               output.o
d2i_PKCS12_SAFEBAG                                output.o
d2i_PKCS12_bio                                    output.o
d2i_PKCS7                                         output.o
d2i_PKCS7_DIGEST                                  output.o
d2i_PKCS7_ENCRYPT                                 output.o
d2i_PKCS7_ENC_CONTENT                             output.o
d2i_PKCS7_ENVELOPE                                output.o
d2i_PKCS7_ISSUER_AND_SERIAL                       output.o
d2i_PKCS7_RECIP_INFO                              output.o
d2i_PKCS7_SIGNED                                  output.o
d2i_PKCS7_SIGNER_INFO                             output.o
d2i_PKCS7_SIGN_ENVELOPE                           output.o
d2i_PKCS7_bio                                     output.o
d2i_PKCS8_PRIV_KEY_INFO                           output.o
d2i_PKCS8_PRIV_KEY_INFO_bio                       output.o
d2i_PKCS8_bio                                     output.o
d2i_PKEY_USAGE_PERIOD                             output.o
d2i_POLICYINFO                                    output.o
d2i_POLICYQUALINFO                                output.o
d2i_PROXY_CERT_INFO_EXTENSION                     output.o
d2i_PROXY_POLICY                                  output.o
d2i_PUBKEY                                        output.o
d2i_PUBKEY_bio                                    output.o
d2i_PrivateKey                                    output.o
d2i_PrivateKey_bio                                output.o
d2i_RSAPrivateKey                                 output.o
d2i_RSAPrivateKey_bio                             output.o
d2i_RSAPublicKey                                  output.o
d2i_RSAPublicKey_bio                              output.o
d2i_RSA_PUBKEY                                    output.o
d2i_RSA_PUBKEY_bio                                output.o
d2i_SXNET                                         output.o
d2i_SXNETID                                       output.o
d2i_USERNOTICE                                    output.o
d2i_X509                                          output.o
d2i_X509_ALGOR                                    output.o
d2i_X509_ALGORS                                   output.o
d2i_X509_ATTRIBUTE                                output.o
d2i_X509_AUX                                      output.o
d2i_X509_CERT_AUX                                 output.o
d2i_X509_CERT_PAIR                                output.o
d2i_X509_CINF                                     output.o
d2i_X509_CRL                                      output.o
d2i_X509_CRL_INFO                                 output.o
d2i_X509_CRL_bio                                  output.o
d2i_X509_EXTENSION                                output.o
d2i_X509_EXTENSIONS                               output.o
d2i_X509_NAME                                     output.o
d2i_X509_NAME_ENTRY                               output.o
d2i_X509_PUBKEY                                   output.o
d2i_X509_REQ                                      output.o
d2i_X509_REQ_INFO                                 output.o
d2i_X509_REQ_bio                                  output.o
d2i_X509_REVOKED                                  output.o
d2i_X509_SIG                                      output.o
d2i_X509_VAL                                      output.o
d2i_X509_bio                                      output.o
dataend                                           output.o
deactivate_and_delete_urb                         output.o
debug_gdb                                         output.o
debug_iohook                                      output.o
debug_msgregister                                 output.o
debug_msgunregister                               output.o
debug_shell                                       output.o
decryptcfg                                        output.o
default_pctx                                      output.o
dh_asn1_meth                                      output.o
dh_pkey_meth                                      output.o
disable_apic                                      output.o
dmar_irte_to_icr                                  output.o
do_externalint_enable                             output.o
do_io_nothing                                     output.o
do_iopass_default                                 output.o
do_panic_reboot                                   output.o
dom_io                                            output.o
dprintf_port                                      output.o
drhd_list_head                                    output.o
dsa_asn1_meths                                    output.o
dsa_builtin_paramgen                              output.o
dsa_pkey_meth                                     output.o
dsa_pub_internal_it                               output.o
dump_frame                                        output.o
dump_qh                                           output.o
dump_td                                           output.o
dump_td_byvirt                                    output.o
e801_fake_ax                                      output.o
e801_fake_bx                                      output.o
ec_GF2m_have_precompute_mult                      output.o
ec_GF2m_precompute_mult                           output.o
ec_GF2m_simple_add                                output.o
ec_GF2m_simple_cmp                                output.o
ec_GF2m_simple_dbl                                output.o
ec_GF2m_simple_field_div                          output.o
ec_GF2m_simple_field_mul                          output.o
ec_GF2m_simple_field_sqr                          output.o
ec_GF2m_simple_group_check_discriminant           output.o
ec_GF2m_simple_group_clear_finish                 output.o
ec_GF2m_simple_group_copy                         output.o
ec_GF2m_simple_group_finish                       output.o
ec_GF2m_simple_group_get_curve                    output.o
ec_GF2m_simple_group_get_degree                   output.o
ec_GF2m_simple_group_init                         output.o
ec_GF2m_simple_group_set_curve                    output.o
ec_GF2m_simple_invert                             output.o
ec_GF2m_simple_is_at_infinity                     output.o
ec_GF2m_simple_is_on_curve                        output.o
ec_GF2m_simple_make_affine                        output.o
ec_GF2m_simple_mul                                output.o
ec_GF2m_simple_oct2point                          output.o
ec_GF2m_simple_point2oct                          output.o
ec_GF2m_simple_point_clear_finish                 output.o
ec_GF2m_simple_point_copy                         output.o
ec_GF2m_simple_point_finish                       output.o
ec_GF2m_simple_point_get_affine_coordinates       output.o
ec_GF2m_simple_point_init                         output.o
ec_GF2m_simple_point_set_affine_coordinates       output.o
ec_GF2m_simple_point_set_to_infinity              output.o
ec_GF2m_simple_points_make_affine                 output.o
ec_GF2m_simple_set_compressed_coordinates         output.o
ec_GFp_mont_field_decode                          output.o
ec_GFp_mont_field_encode                          output.o
ec_GFp_mont_field_mul                             output.o
ec_GFp_mont_field_set_to_one                      output.o
ec_GFp_mont_field_sqr                             output.o
ec_GFp_mont_group_clear_finish                    output.o
ec_GFp_mont_group_copy                            output.o
ec_GFp_mont_group_finish                          output.o
ec_GFp_mont_group_init                            output.o
ec_GFp_mont_group_set_curve                       output.o
ec_GFp_nist_field_mul                             output.o
ec_GFp_nist_field_sqr                             output.o
ec_GFp_nist_group_copy                            output.o
ec_GFp_nist_group_set_curve                       output.o
ec_GFp_simple_add                                 output.o
ec_GFp_simple_cmp                                 output.o
ec_GFp_simple_dbl                                 output.o
ec_GFp_simple_field_mul                           output.o
ec_GFp_simple_field_sqr                           output.o
ec_GFp_simple_get_Jprojective_coordinates_GFp     output.o
ec_GFp_simple_group_check_discriminant            output.o
ec_GFp_simple_group_clear_finish                  output.o
ec_GFp_simple_group_copy                          output.o
ec_GFp_simple_group_finish                        output.o
ec_GFp_simple_group_get_curve                     output.o
ec_GFp_simple_group_get_degree                    output.o
ec_GFp_simple_group_init                          output.o
ec_GFp_simple_group_set_curve                     output.o
ec_GFp_simple_invert                              output.o
ec_GFp_simple_is_at_infinity                      output.o
ec_GFp_simple_is_on_curve                         output.o
ec_GFp_simple_make_affine                         output.o
ec_GFp_simple_oct2point                           output.o
ec_GFp_simple_point2oct                           output.o
ec_GFp_simple_point_clear_finish                  output.o
ec_GFp_simple_point_copy                          output.o
ec_GFp_simple_point_finish                        output.o
ec_GFp_simple_point_get_affine_coordinates        output.o
ec_GFp_simple_point_init                          output.o
ec_GFp_simple_point_set_affine_coordinates        output.o
ec_GFp_simple_point_set_to_infinity               output.o
ec_GFp_simple_points_make_affine                  output.o
ec_GFp_simple_set_Jprojective_coordinates_GFp     output.o
ec_GFp_simple_set_compressed_coordinates          output.o
ec_pkey_meth                                      output.o
ec_wNAF_have_precompute_mult                      output.o
ec_wNAF_mul                                       output.o
ec_wNAF_precompute_mult                           output.o
ecdh_check                                        output.o
ecdsa_check                                       output.o
eckey_asn1_meth                                   output.o
ehci_check_advance                                output.o
ehci_check_urb_advance                            output.o
ehci_cleanup_urbs                                 output.o
ehci_conceal_portroute                            output.o
ehci_deactivate_urb                               output.o
ehci_end_monitor_async                            output.o
ehci_init                                         output.o
ehci_monitor_async_list                           output.o
ehci_shadow_async_list                            output.o
ehci_shadow_buffer                                output.o
ehci_submit_bulk                                  output.o
ehci_submit_control                               output.o
ehci_submit_interrupt                             output.o
enableSSE                                         output.o
end                                               output.o
entropy_calc                                      output.o
entropy_length                                    output.o
entropy_trigger                                   output.o
entry                                             output.o
entry_pd                                          output.o
entry_pd0                                         output.o
entry_pdp                                         output.o
eoi                                               output.o
evp_pkey_set_cb_translate                         output.o
exint_pass_intr_alloc                             output.o
exint_pass_intr_call                              output.o
exint_pass_intr_free                              output.o
exint_pass_intr_register_callback                 output.o
exitprocess                                       output.o
file_lba_end                                      output.o
file_lba_start                                    output.o
fill_pagetable                                    output.o
find_task_from_cr3                                output.o
free                                              output.o
free_config_descriptors                           output.o
free_device                                       output.o
free_page                                         output.o
free_page_phys                                    output.o
free_pages_range                                  output.o
get_acpi_time                                     output.o
get_acpi_time_raw                                 output.o
get_cpu_id                                        output.o
get_cpu_time                                      output.o
get_current_cr3_reg                               output.o
get_current_fs_reg                                output.o
get_current_gs_reg                                output.o
get_current_rsp_reg                               output.o
get_gurb_by_address                               output.o
get_init_task_stack                               output.o
get_msr_gs_base                                   output.o
get_qtd_from_qtdm                                 output.o
get_seg_access_rights                             output.o
get_seg_base                                      output.o
get_time                                          output.o
getfakesysmemmap                                  output.o
getsysmemmap                                      output.o
gmm_pass_getforcemap                              output.o
gmm_pass_gp2hp                                    output.o
gmm_pass_gp2hp_2m                                 output.o
gs_current                                        output.o
gs_currentcpu                                     output.o
gs_init_count                                     output.o
gs_inthandling                                    output.o
gs_nmi_count                                      output.o
gs_nmi_critical                                   output.o
gs_syscallstack                                   output.o
guest_int0x15_e801_fake_ax                        output.o
guest_int0x15_e801_fake_bx                        output.o
guest_int0x15_e820_data_minus0x18                 output.o
guest_int0x15_e820_end                            output.o
guest_int0x15_hook                                output.o
guest_int0x15_hook_end                            output.o
guest_int0x15_orig                                output.o
guestvirt_to_guestphys                            output.o
handle_connect_status                             output.o
handle_init_to_bsp                                output.o
handle_port_reset                                 output.o
handler_descriptor                                output.o
handler_descriptor_lock                           output.o
head                                              output.o
hex_to_string                                     output.o
hmac_asn1_meth                                    output.o
hmac_pkey_meth                                    output.o
hub_portdevice_register                           output.o
i2a_ACCESS_DESCRIPTION                            output.o
i2a_ASN1_INTEGER                                  output.o
i2a_ASN1_OBJECT                                   output.o
i2a_ASN1_STRING                                   output.o
i2c_ASN1_BIT_STRING                               output.o
i2c_ASN1_INTEGER                                  output.o
i2d_ACCESS_DESCRIPTION                            output.o
i2d_ASN1_BIT_STRING                               output.o
i2d_ASN1_BMPSTRING                                output.o
i2d_ASN1_BOOLEAN                                  output.o
i2d_ASN1_ENUMERATED                               output.o
i2d_ASN1_GENERALIZEDTIME                          output.o
i2d_ASN1_GENERALSTRING                            output.o
i2d_ASN1_IA5STRING                                output.o
i2d_ASN1_INTEGER                                  output.o
i2d_ASN1_NULL                                     output.o
i2d_ASN1_OBJECT                                   output.o
i2d_ASN1_OCTET_STRING                             output.o
i2d_ASN1_PRINTABLE                                output.o
i2d_ASN1_PRINTABLESTRING                          output.o
i2d_ASN1_SEQUENCE_ANY                             output.o
i2d_ASN1_SET                                      output.o
i2d_ASN1_SET_ANY                                  output.o
i2d_ASN1_T61STRING                                output.o
i2d_ASN1_TIME                                     output.o
i2d_ASN1_TYPE                                     output.o
i2d_ASN1_UNIVERSALSTRING                          output.o
i2d_ASN1_UTCTIME                                  output.o
i2d_ASN1_UTF8STRING                               output.o
i2d_ASN1_VISIBLESTRING                            output.o
i2d_ASN1_bio_stream                               output.o
i2d_ASN1_bytes                                    output.o
i2d_AUTHORITY_INFO_ACCESS                         output.o
i2d_AUTHORITY_KEYID                               output.o
i2d_BASIC_CONSTRAINTS                             output.o
i2d_CERTIFICATEPOLICIES                           output.o
i2d_CMS_ContentInfo                               output.o
i2d_CMS_bio                                       output.o
i2d_CMS_bio_stream                                output.o
i2d_CRL_DIST_POINTS                               output.o
i2d_DHparams                                      output.o
i2d_DIRECTORYSTRING                               output.o
i2d_DISPLAYTEXT                                   output.o
i2d_DIST_POINT                                    output.o
i2d_DIST_POINT_NAME                               output.o
i2d_DSAPrivateKey                                 output.o
i2d_DSAPrivateKey_bio                             output.o
i2d_DSAPublicKey                                  output.o
i2d_DSA_PUBKEY                                    output.o
i2d_DSA_PUBKEY_bio                                output.o
i2d_DSA_SIG                                       output.o
i2d_DSAparams                                     output.o
i2d_ECDSA_SIG                                     output.o
i2d_ECPKPARAMETERS                                output.o
i2d_ECPKParameters                                output.o
i2d_ECParameters                                  output.o
i2d_ECPrivateKey                                  output.o
i2d_ECPrivateKey_bio                              output.o
i2d_EC_PRIVATEKEY                                 output.o
i2d_EC_PUBKEY                                     output.o
i2d_EC_PUBKEY_bio                                 output.o
i2d_EDIPARTYNAME                                  output.o
i2d_EXTENDED_KEY_USAGE                            output.o
i2d_GENERAL_NAME                                  output.o
i2d_GENERAL_NAMES                                 output.o
i2d_ISSUING_DIST_POINT                            output.o
i2d_NETSCAPE_SPKAC                                output.o
i2d_NETSCAPE_SPKI                                 output.o
i2d_NOTICEREF                                     output.o
i2d_OCSP_BASICRESP                                output.o
i2d_OCSP_CERTID                                   output.o
i2d_OCSP_CERTSTATUS                               output.o
i2d_OCSP_CRLID                                    output.o
i2d_OCSP_ONEREQ                                   output.o
i2d_OCSP_REQINFO                                  output.o
i2d_OCSP_REQUEST                                  output.o
i2d_OCSP_RESPBYTES                                output.o
i2d_OCSP_RESPDATA                                 output.o
i2d_OCSP_RESPID                                   output.o
i2d_OCSP_RESPONSE                                 output.o
i2d_OCSP_REVOKEDINFO                              output.o
i2d_OCSP_SERVICELOC                               output.o
i2d_OCSP_SIGNATURE                                output.o
i2d_OCSP_SINGLERESP                               output.o
i2d_OTHERNAME                                     output.o
i2d_PBE2PARAM                                     output.o
i2d_PBEPARAM                                      output.o
i2d_PBKDF2PARAM                                   output.o
i2d_PKCS12                                        output.o
i2d_PKCS12_BAGS                                   output.o
i2d_PKCS12_MAC_DATA                               output.o
i2d_PKCS12_SAFEBAG                                output.o
i2d_PKCS12_bio                                    output.o
i2d_PKCS7                                         output.o
i2d_PKCS7_DIGEST                                  output.o
i2d_PKCS7_ENCRYPT                                 output.o
i2d_PKCS7_ENC_CONTENT                             output.o
i2d_PKCS7_ENVELOPE                                output.o
i2d_PKCS7_ISSUER_AND_SERIAL                       output.o
i2d_PKCS7_NDEF                                    output.o
i2d_PKCS7_RECIP_INFO                              output.o
i2d_PKCS7_SIGNED                                  output.o
i2d_PKCS7_SIGNER_INFO                             output.o
i2d_PKCS7_SIGN_ENVELOPE                           output.o
i2d_PKCS7_bio                                     output.o
i2d_PKCS8PrivateKeyInfo_bio                       output.o
i2d_PKCS8_PRIV_KEY_INFO                           output.o
i2d_PKCS8_PRIV_KEY_INFO_bio                       output.o
i2d_PKCS8_bio                                     output.o
i2d_PKEY_USAGE_PERIOD                             output.o
i2d_POLICYINFO                                    output.o
i2d_POLICYQUALINFO                                output.o
i2d_PROXY_CERT_INFO_EXTENSION                     output.o
i2d_PROXY_POLICY                                  output.o
i2d_PUBKEY                                        output.o
i2d_PUBKEY_bio                                    output.o
i2d_PrivateKey                                    output.o
i2d_PrivateKey_bio                                output.o
i2d_RSAPrivateKey                                 output.o
i2d_RSAPrivateKey_bio                             output.o
i2d_RSAPublicKey                                  output.o
i2d_RSAPublicKey_bio                              output.o
i2d_RSA_PUBKEY                                    output.o
i2d_RSA_PUBKEY_bio                                output.o
i2d_SXNET                                         output.o
i2d_SXNETID                                       output.o
i2d_USERNOTICE                                    output.o
i2d_X509                                          output.o
i2d_X509_ALGOR                                    output.o
i2d_X509_ALGORS                                   output.o
i2d_X509_ATTRIBUTE                                output.o
i2d_X509_AUX                                      output.o
i2d_X509_CERT_AUX                                 output.o
i2d_X509_CERT_PAIR                                output.o
i2d_X509_CINF                                     output.o
i2d_X509_CRL                                      output.o
i2d_X509_CRL_INFO                                 output.o
i2d_X509_CRL_bio                                  output.o
i2d_X509_EXTENSION                                output.o
i2d_X509_EXTENSIONS                               output.o
i2d_X509_NAME                                     output.o
i2d_X509_NAME_ENTRY                               output.o
i2d_X509_PUBKEY                                   output.o
i2d_X509_REQ                                      output.o
i2d_X509_REQ_INFO                                 output.o
i2d_X509_REQ_bio                                  output.o
i2d_X509_REVOKED                                  output.o
i2d_X509_SIG                                      output.o
i2d_X509_VAL                                      output.o
i2d_X509_bio                                      output.o
i2o_ECPublicKey                                   output.o
i2s_ASN1_ENUMERATED                               output.o
i2s_ASN1_ENUMERATED_TABLE                         output.o
i2s_ASN1_INTEGER                                  output.o
i2s_ASN1_OCTET_STRING                             output.o
i2t_ASN1_OBJECT                                   output.o
i2v_ASN1_BIT_STRING                               output.o
i2v_GENERAL_NAME                                  output.o
i2v_GENERAL_NAMES                                 output.o
idea_cbc_encrypt                                  output.o
idea_cfb64_encrypt                                output.o
idea_ecb_encrypt                                  output.o
idea_encrypt                                      output.o
idea_ofb64_encrypt                                output.o
idea_options                                      output.o
idea_set_decrypt_key                              output.o
idea_set_encrypt_key                              output.o
init_hframelist                                   output.o
init_task                                         output.o
init_task_info                                    output.o
initfunc_init                                     output.o
initipi_get_count                                 output.o
initipi_inc_count                                 output.o
inode_in_qtd                                      output.o
int1a_TCG_CompactHashLogExtendEvent               output.o
int1a_TCG_HashAll                                 output.o
int1a_TCG_HashLogEvent                            output.o
int1a_TCG_HashLogExtendEvent                      output.o
int1a_TCG_PassThroughToTPM                        output.o
int1a_TCG_StatusCheck                             output.o
int1a_TCG_TSS                                     output.o
int_callfunc                                      output.o
int_exceptionHandler                              output.o
int_fatal                                         output.o
int_handler                                       output.o
int_init_ap                                       output.o
int_rsa_verify                                    output.o
iodom_init                                        output.o
iommu_detected                                    output.o
iommu_setup                                       output.o
ipchecksum                                        output.o
is_icr_destination_me                             output.o
is_win_kernel_addr                                output.o
kaslr_offset                                      output.o
keyboard_flush                                    output.o
keyboard_reset                                    output.o
level_add_node                                    output.o
level_find_node                                   output.o
lh_delete                                         output.o
lh_doall                                          output.o
lh_doall_arg                                      output.o
lh_free                                           output.o
lh_insert                                         output.o
lh_new                                            output.o
lh_num_items                                      output.o
lh_retrieve                                       output.o
lh_strhash                                        output.o
lh_version                                        output.o
load_bootsector                                   output.o
load_minios                                       output.o
load_new_vcpu                                     output.o
localapic_change_base_msr                         output.o
localapic_delayed_ap_start                        output.o
localapic_mmio_register                           output.o
localapic_wait_for_sipi                           output.o
localapic_x2apic_icr                              output.o
make_segment_gs_accessible                        output.o
mapmem_as                                         output.o
mapmem_hphys                                      output.o
matched_drhd_u                                    output.o
md4_block_data_order                              output.o
md5_block_data_order                              output.o
mem_find_str                                      output.o
memcmp                                            output.o
memcpy                                            output.o
memorysize                                        output.o
mempool_allocmem                                  output.o
mempool_free                                      output.o
mempool_freemem                                   output.o
mempool_new                                       output.o
memset                                            output.o
message_exitcode                                  output.o
message_exitreason                                output.o
mm_as_msi_to_icr                                  output.o
mm_as_translate                                   output.o
mm_flush_wb_cache                                 output.o
mm_force_unlock                                   output.o
mm_free_panicmem                                  output.o
mm_get_panicmem                                   output.o
mm_process_alloc                                  output.o
mm_process_free                                   output.o
mm_process_map_alloc                              output.o
mm_process_map_shared                             output.o
mm_process_map_shared_physpage                    output.o
mm_process_map_stack                              output.o
mm_process_switch                                 output.o
mm_process_unmap                                  output.o
mm_process_unmap_stack                            output.o
mm_process_unmapall                               output.o
mmio_access_memory                                output.o
mmio_access_page                                  output.o
mmio_lock                                         output.o
mmio_range                                        output.o
mmio_register                                     output.o
mmio_register_unlocked                            output.o
mmio_unlock                                       output.o
mmio_unregister                                   output.o
mmioclr_clear_gmap                                output.o
mmioclr_clear_hmap                                output.o
mmioclr_register                                  output.o
mmioclr_unregister                                output.o
modify_acpi_table                                 output.o
move_vmm_area32                                   output.o
move_vmm_area64                                   output.o
mpudiv_128_32                                     output.o
mpumul_64_64                                      output.o
msg_findname                                      output.o
msg_register                                      output.o
msg_unregister                                    output.o
msg_unregister2                                   output.o
msg_unregisterall                                 output.o
msgclose                                          output.o
msgopen                                           output.o
msgpremapbuf                                      output.o
msgregister                                       output.o
msgsendbuf                                        output.o
msgsenddesc                                       output.o
msgsendint                                        output.o
msgsetfunc                                        output.o
msgunregister                                     output.o
msi_to_icr                                        output.o
msr_pass_hook_x2apic_icr                          output.o
my_log                                            output.o
name_cmp                                          output.o
net_init                                          output.o
net_new_nic                                       output.o
net_premap_recvbuf                                output.o
net_register                                      output.o
net_start                                         output.o
new_round                                         output.o
newprocess                                        output.o
nmi_get_count                                     output.o
nmi_handler                                       output.o
nmi_inc_count                                     output.o
num_dom                                           output.o
num_of_available_pages                            output.o
num_of_processors                                 output.o
o2i_ECPublicKey                                   output.o
obj_cleanup_defer                                 output.o
own_process64_msrs                                output.o
panic                                             output.o
panic_oom                                         output.o
panic_test                                        output.o
panic_wakeup_all                                  output.o
parse_CBW                                         output.o
parse_dmar_bios_report                            output.o
patternlist                                       output.o
pci_append_device                                 output.o
pci_assign_virtual_device                         output.o
pci_conceal_config_read                           output.o
pci_conceal_config_write                          output.o
pci_conceal_new                                   output.o
pci_config_addr_handler                           output.o
pci_config_data_handler                           output.o
pci_config_mmio_data_head                         output.o
pci_config_mmio_handler                           output.o
pci_config_pmio_enter                             output.o
pci_config_pmio_leave                             output.o
pci_config_read                                   output.o
pci_config_write                                  output.o
pci_device_list_head                              output.o
pci_disable_msi_callback                          output.o
pci_driver_list_head                              output.o
pci_driver_option_get_bool                        output.o
pci_driver_option_get_int                         output.o
pci_dump_pci_dev_list                             output.o
pci_enable_device                                 output.o
pci_enable_msi_callback                           output.o
pci_find_cap_offset                               output.o
pci_find_driver_by_token                          output.o
pci_find_driver_for_device                        output.o
pci_find_virtual_driver_by_token                  output.o
pci_get_bar_info                                  output.o
pci_get_bridge_from_bus_no                        output.o
pci_get_modifying_bar_info                        output.o
pci_handle_default_config_read                    output.o
pci_handle_default_config_write                   output.o
pci_match                                         output.o
pci_match_add_compat                              output.o
pci_match_find_driver                             output.o
pci_match_get_virtual_device                      output.o
pci_msi_disable                                   output.o
pci_msi_dummyaddr                                 output.o
pci_msi_enable                                    output.o
pci_msi_init                                      output.o
pci_msi_set                                       output.o
pci_msi_to_ipi                                    output.o
pci_possible_new_device                           output.o
pci_print_device                                  output.o
pci_read_config_mmio                              output.o
pci_read_config_pmio                              output.o
pci_readwrite_config_mmio                         output.o
pci_readwrite_config_pmio                         output.o
pci_reconnect_device                              output.o
pci_register_driver                               output.o
pci_register_intr_callback                        output.o
pci_register_msi_callback                         output.o
pci_register_virtual_driver                       output.o
pci_save_config_addr                              output.o
pci_set_bridge_callback                           output.o
pci_set_bridge_from_bus_no                        output.o
pci_set_bridge_io                                 output.o
pci_system_disconnect                             output.o
pci_virtual_driver_list_head                      output.o
pci_write_config_mmio                             output.o
pci_write_config_pmio                             output.o
pcpu_default                                      output.o
pcpu_init                                         output.o
pcpu_list_add                                     output.o
pcpu_list_foreach                                 output.o
pem_check_suffix                                  output.o
phys_in_vmm                                       output.o
phys_to_virt                                      output.o
pmap_autoalloc                                    output.o
pmap_clear                                        output.o
pmap_close                                        output.o
pmap_dump                                         output.o
pmap_getreadlevel                                 output.o
pmap_open_guest                                   output.o
pmap_open_vmm                                     output.o
pmap_pointer                                      output.o
pmap_read                                         output.o
pmap_seek                                         output.o
pmap_setlevel                                     output.o
pmap_write                                        output.o
policy_cache_find_data                            output.o
policy_cache_free                                 output.o
policy_cache_set                                  output.o
policy_cache_set_mapping                          output.o
policy_data_free                                  output.o
policy_data_new                                   output.o
policy_node_cmp_new                               output.o
policy_node_free                                  output.o
policy_node_match                                 output.o
prepare_for_sleep                                 output.o
printexitcode                                     output.o
printexitreason                                   output.o
printf                                            output.o
process_kill                                      output.o
process_syscall                                   output.o
processbin_add                                    output.o
processuser_callgate64                            output.o
processuser_no_sysenter                           output.o
processuser_syscall                               output.o
processuser_sysenter                              output.o
prohibit_iccard_init                              output.o
putchar                                           output.o
putchar_set_func                                  output.o
rand_ssleay_meth                                  output.o
read_gphys_b                                      output.o
read_gphys_l                                      output.o
read_gphys_q                                      output.o
read_gphys_w                                      output.o
read_hphys_b                                      output.o
read_hphys_l                                      output.o
read_hphys_q                                      output.o
read_hphys_w                                      output.o
read_linearaddr_b                                 output.o
read_linearaddr_l                                 output.o
read_linearaddr_q                                 output.o
read_linearaddr_tss                               output.o
read_linearaddr_w                                 output.o
realloc                                           output.o
reboot_test                                       output.o
register_status_callback                          output.o
resume_vm                                         output.o
ret_to_user32                                     output.o
ret_to_user64                                     output.o
ret_to_user64_sysret                              output.o
reversebytes_uint32t                              output.o
reversebytes_uint64t                              output.o
ripemd160_block_data_order                        output.o
rsa_asn1_meths                                    output.o
rsa_pkey_meth                                     output.o
s2i_ASN1_INTEGER                                  output.o
s2i_ASN1_OCTET_STRING                             output.o
savemsr_index                                     output.o
savemsr_load                                      output.o
savemsr_save                                      output.o
scan_gframelist                                   output.o
schedule                                          output.o
sector2048count                                   output.o
security_storage_check_lba                        output.o
segment_init_ap                                   output.o
segment_wakeup                                    output.o
self_ipi                                          output.o
send_ipi                                          output.o
serial_getDebugChar                               output.o
serial_init_iohook                                output.o
serial_putDebugChar                               output.o
serial_putchar                                    output.o
set_int_handler                                   output.o
set_iofunc                                        output.o
setkbdled                                         output.o
shadow_and_activate_urb                           output.o
sig_app                                           output.o
sigx_app                                          output.o
sk_delete                                         output.o
sk_delete_ptr                                     output.o
sk_dup                                            output.o
sk_find                                           output.o
sk_find_ex                                        output.o
sk_free                                           output.o
sk_insert                                         output.o
sk_is_sorted                                      output.o
sk_new                                            output.o
sk_new_null                                       output.o
sk_num                                            output.o
sk_pop                                            output.o
sk_pop_free                                       output.o
sk_push                                           output.o
sk_set                                            output.o
sk_set_cmp_func                                   output.o
sk_shift                                          output.o
sk_sort                                           output.o
sk_unshift                                        output.o
sk_value                                          output.o
sk_zero                                           output.o
sleep_set_timer_counter                           output.o
snprintf                                          output.o
start_all_processors                              output.o
storage_free                                      output.o
storage_get_num_hc                                output.o
storage_handle_sectors                            output.o
storage_hc_close                                  output.o
storage_hc_dev_atacommand                         output.o
storage_hc_dev_close                              output.o
storage_hc_dev_open                               output.o
storage_hc_hook_register                          output.o
storage_hc_hook_unregister                        output.o
storage_hc_open                                   output.o
storage_hc_register                               output.o
storage_hc_scandev                                output.o
storage_hc_unregister                             output.o
storage_init                                      output.o
storage_io_aget_size                              output.o
storage_io_aread                                  output.o
storage_io_awrite                                 output.o
storage_io_deinit                                 output.o
storage_io_get_num_devices                        output.o
storage_io_init                                   output.o
storage_new                                       output.o
storage_premap_buf                                output.o
storage_premap_handle_sectors                     output.o
strcmp                                            output.o
string_to_hex                                     output.o
strlen                                            output.o
strncmp                                           output.o
strtol                                            output.o
svm_available                                     output.o
svm_enable_resume                                 output.o
svm_exint_assert                                  output.o
svm_exint_pass                                    output.o
svm_generate_external_int                         output.o
svm_init                                          output.o
svm_init_signal                                   output.o
svm_ioio                                          output.o
svm_iopass                                        output.o
svm_msr_update_lma                                output.o
svm_msrpass                                       output.o
svm_np_clear_all                                  output.o
svm_np_init                                       output.o
svm_np_map_1mb                                    output.o
svm_np_pagefault                                  output.o
svm_np_tlbflush                                   output.o
svm_np_updatecr3                                  output.o
svm_paging_apply_fixed_cr0                        output.o
svm_paging_apply_fixed_cr4                        output.o
svm_paging_clear_all                              output.o
svm_paging_flush_guest_tlb                        output.o
svm_paging_get_gpat                               output.o
svm_paging_init                                   output.o
svm_paging_invalidate                             output.o
svm_paging_map_1mb                                output.o
svm_paging_npf                                    output.o
svm_paging_pagefault                              output.o
svm_paging_pg_change                              output.o
svm_paging_set_gpat                               output.o
svm_paging_spt_setcr3                             output.o
svm_paging_start                                  output.o
svm_paging_tlbflush                               output.o
svm_paging_updatecr3                              output.o
svm_panic_dump                                    output.o
svm_read_control_reg                              output.o
svm_read_flags                                    output.o
svm_read_gdtr                                     output.o
svm_read_general_reg                              output.o
svm_read_idtr                                     output.o
svm_read_ip                                       output.o
svm_read_msr                                      output.o
svm_read_sreg_acr                                 output.o
svm_read_sreg_base                                output.o
svm_read_sreg_limit                               output.o
svm_read_sreg_sel                                 output.o
svm_reset                                         output.o
svm_resume                                        output.o
svm_start_vm                                      output.o
svm_vmexit                                        output.o
svm_vminit                                        output.o
svm_write_control_reg                             output.o
svm_write_flags                                   output.o
svm_write_gdtr                                    output.o
svm_write_general_reg                             output.o
svm_write_idtr                                    output.o
svm_write_ip                                      output.o
svm_write_msr                                     output.o
svm_write_realmode_seg                            output.o
svm_writing_sreg                                  output.o
sx_handler                                        output.o
sym_to_phys                                       output.o
sync_all_processors                               output.o
sys_exitprocess                                   output.o
sys_msgclose                                      output.o
sys_msgopen                                       output.o
sys_msgregister                                   output.o
sys_msgret                                        output.o
sys_msgsendbuf                                    output.o
sys_msgsenddesc                                   output.o
sys_msgsendint                                    output.o
sys_msgsetfunc                                    output.o
sys_msgunregister                                 output.o
sys_newprocess                                    output.o
syscall_entry_lret                                output.o
syscall_entry_lret64                              output.o
syscall_entry_sysexit                             output.o
syscall_entry_sysret64                            output.o
tcg_measure                                       output.o
test_start                                        output.o
thread_exit                                       output.o
thread_gettid                                     output.o
thread_new                                        output.o
thread_start0                                     output.o
thread_start1                                     output.o
thread_switch                                     output.o
thread_wakeup                                     output.o
thread_will_stop                                  output.o
timer_free                                        output.o
timer_new                                         output.o
timer_set                                         output.o
traverse_IrpList                                  output.o
traverse_entropy_excluded_process_list            output.o
traverse_excluded_process_list                    output.o
tree_find_sk                                      output.o
tty_get_logbuf_info                               output.o
tty_init_iohook                                   output.o
tty_putchar                                       output.o
tty_udp_register                                  output.o
ttylog_copy_from_panicmem                         output.o
ttylog_copy_to_panicmem                           output.o
ttylog_stop                                       output.o
uefi_acpi_20_table                                output.o
uefi_acpi_table                                   output.o
uefi_allocate_pages                               output.o
uefi_boot_acpi_table_mod                          output.o
uefi_boot_param_ext_addr                          output.o
uefi_booted                                       output.o
uefi_close_protocol                               output.o
uefi_conin                                        output.o
uefi_conin_read_key_stroke                        output.o
uefi_conout                                       output.o
uefi_conout_output_string                         output.o
uefi_create_event                                 output.o
uefi_disconnect_controller                        output.o
uefi_entry_call                                   output.o
uefi_entry_cr3                                    output.o
uefi_entry_gdtr                                   output.o
uefi_entry_pcpy                                   output.o
uefi_entry_restore_regs                           output.o
uefi_entry_ret_addr                               output.o
uefi_entry_rsp                                    output.o
uefi_entry_save_regs                              output.o
uefi_entry_save_regs_size                         output.o
uefi_entry_start                                  output.o
uefi_entry_virttophys                             output.o
uefi_free_pages                                   output.o
uefi_free_pool                                    output.o
uefi_get_memory_map                               output.o
uefi_image_handle                                 output.o
uefi_init                                         output.o
uefi_init_get_vmmsize                             output.o
uefi_locate_device_path                           output.o
uefi_locate_handle_buffer                         output.o
uefi_memory_map_data                              output.o
uefi_memory_map_descsize                          output.o
uefi_memory_map_size                              output.o
uefi_mmio_space                                   output.o
uefi_open_protocol                                output.o
uefi_param_ext_get_phys                           output.o
uefi_protocols_per_handle                         output.o
uefi_uninstall_protocol_interface                 output.o
uefi_wait_for_event                               output.o
uefiutil_disconnect_pcidev_driver                 output.o
uefiutil_get_graphics_info                        output.o
uefiutil_netdev_get_mac_addr                      output.o
uhci_activate_urb                                 output.o
uhci_check_advance                                output.o
uhci_check_urb_advance                            output.o
uhci_create_urb                                   output.o
uhci_current_frame_number                         output.o
uhci_deactivate_urb                               output.o
uhci_destroy_unlinked_urbs                        output.o
uhci_destroy_urb                                  output.o
uhci_dump_all                                     output.o
uhci_error_status_string                          output.o
uhci_framelist_monitor                            output.o
uhci_init                                         output.o
uhci_monitor_boost_hc                             output.o
uhci_reactivate_urb                               output.o
uhci_shadow_buffer                                output.o
uhci_submit_bulk                                  output.o
uhci_submit_control                               output.o
uhci_submit_interrupt                             output.o
unmapmem                                          output.o
update_mtrr_and_pat                               output.o
usb_bulk_read                                     output.o
usb_bulk_write                                    output.o
usb_busses_head                                   output.o
usb_claim_interface                               output.o
usb_clear_halt                                    output.o
usb_close                                         output.o
usb_control_msg                                   output.o
usb_find_busses                                   output.o
usb_find_devices                                  output.o
usb_get_bus                                       output.o
usb_get_busses                                    output.o
usb_get_descriptor                                output.o
usb_get_descriptor_by_endpoint                    output.o
usb_get_descriptor_early                          output.o
usb_get_string                                    output.o
usb_get_string_simple                             output.o
usb_hc_list_head                                  output.o
usb_hook_process                                  output.o
usb_hook_register                                 output.o
usb_hook_register_ex                              output.o
usb_hook_unregister                               output.o
usb_init                                          output.o
usb_init_device                                   output.o
usb_init_device_monitor                           output.o
usb_interrupt_read                                output.o
usb_interrupt_write                               output.o
usb_log_level                                     output.o
usb_new_dev_handle                                output.o
usb_open                                          output.o
usb_register_host                                 output.o
usb_release_interface                             output.o
usb_reset                                         output.o
usb_resetep                                       output.o
usb_sc_lock                                       output.o
usb_sc_unlock                                     output.o
usb_set_altinterface                              output.o
usb_set_configuration                             output.o
usb_set_debug                                     output.o
usb_unregister_devices                            output.o
usbhid_init_handle                                output.o
usbhub_init_handle                                output.o
usbmsc_init_handle                                output.o
use_pae                                           output.o
usleep                                            output.o
v2i_ASN1_BIT_STRING                               output.o
v2i_GENERAL_NAME                                  output.o
v2i_GENERAL_NAMES                                 output.o
v2i_GENERAL_NAME_ex                               output.o
v3_akey_id                                        output.o
v3_alt                                            output.o
v3_bcons                                          output.o
v3_cpols                                          output.o
v3_crl_hold                                       output.o
v3_crl_invdate                                    output.o
v3_crl_num                                        output.o
v3_crl_reason                                     output.o
v3_crld                                           output.o
v3_delta_crl                                      output.o
v3_ext_ku                                         output.o
v3_freshest_crl                                   output.o
v3_idp                                            output.o
v3_info                                           output.o
v3_inhibit_anyp                                   output.o
v3_key_usage                                      output.o
v3_name_constraints                               output.o
v3_ns_ia5_list                                    output.o
v3_nscert                                         output.o
v3_ocsp_accresp                                   output.o
v3_ocsp_acutoff                                   output.o
v3_ocsp_crlid                                     output.o
v3_ocsp_nocheck                                   output.o
v3_ocsp_nonce                                     output.o
v3_ocsp_serviceloc                                output.o
v3_pci                                            output.o
v3_pkey_usage_period                              output.o
v3_policy_constraints                             output.o
v3_policy_mappings                                output.o
v3_sinfo                                          output.o
v3_skey_id                                        output.o
v3_sxnet                                          output.o
vcpu_list_foreach                                 output.o
vga_fill_rect                                     output.o
vga_get_screen_size                               output.o
vga_is_ready                                      output.o
vga_register                                      output.o
vga_transfer_image                                output.o
virt_to_phys                                      output.o
vmctl_svm_init                                    output.o
vmctl_vt_init                                     output.o
vmm_base_cr3                                      output.o
vmm_main                                          output.o
vmm_start_inf                                     output.o
vmm_start_phys                                    output.o
vmm_term_inf                                      output.o
vmmcall                                           output.o
vmmcall_boot_continue                             output.o
vmmcall_boot_enable                               output.o
vmmcall_init                                      output.o
vmmcall_register                                  output.o
vmmsize                                           output.o
vprintf                                           output.o
vramwrite_clearscreen                             output.o
vramwrite_exit_global                             output.o
vramwrite_get_cursor_pos                          output.o
vramwrite_init_global                             output.o
vramwrite_mark1                                   output.o
vramwrite_mark2                                   output.o
vramwrite_mark3                                   output.o
vramwrite_putchar                                 output.o
vramwrite_restore_cursor                          output.o
vramwrite_save_and_move_cursor                    output.o
vsnprintf                                         output.o
vt__vmx_init                                      output.o
vt__vmxon                                         output.o
vt_add_guest_msr                                  output.o
vt_available                                      output.o
vt_emul_invept                                    output.o
vt_emul_invvpid                                   output.o
vt_emul_vmclear                                   output.o
vt_emul_vmlaunch                                  output.o
vt_emul_vmptrld                                   output.o
vt_emul_vmptrst                                   output.o
vt_emul_vmread                                    output.o
vt_emul_vmresume                                  output.o
vt_emul_vmwrite                                   output.o
vt_emul_vmxoff                                    output.o
vt_emul_vmxon                                     output.o
vt_emul_vmxon_in_vmx_root_mode                    output.o
vt_enable_resume                                  output.o
vt_ept_clear_all                                  output.o
vt_ept_init                                       output.o
vt_ept_map_1mb                                    output.o
vt_ept_tlbflush                                   output.o
vt_ept_updatecr3                                  output.o
vt_ept_violation                                  output.o
vt_exint_assert                                   output.o
vt_exint_pass                                     output.o
vt_generate_external_int                          output.o
vt_generate_pagefault                             output.o
vt_get_current_regs_in_vmcs                       output.o
vt_get_vmcs_regs_in_vmcs                          output.o
vt_init                                           output.o
vt_init_signal                                    output.o
vt_io                                             output.o
vt_iopass                                         output.o
vt_msr_init                                       output.o
vt_msr_load_process64_msrs                        output.o
vt_msr_own_process_msrs                           output.o
vt_msr_update_lma                                 output.o
vt_msrpass                                        output.o
vt_paging_apply_fixed_cr0                         output.o
vt_paging_apply_fixed_cr4                         output.o
vt_paging_clear_all                               output.o
vt_paging_flush_guest_tlb                         output.o
vt_paging_get_gpat                                output.o
vt_paging_init                                    output.o
vt_paging_invalidate                              output.o
vt_paging_map_1mb                                 output.o
vt_paging_npf                                     output.o
vt_paging_pagefault                               output.o
vt_paging_pg_change                               output.o
vt_paging_set_gpat                                output.o
vt_paging_spt_setcr3                              output.o
vt_paging_start                                   output.o
vt_paging_tlbflush                                output.o
vt_paging_updatecr3                               output.o
vt_panic_dump                                     output.o
vt_read_control_reg                               output.o
vt_read_flags                                     output.o
vt_read_gdtr                                      output.o
vt_read_general_reg                               output.o
vt_read_guest_msr                                 output.o
vt_read_idtr                                      output.o
vt_read_ip                                        output.o
vt_read_msr                                       output.o
vt_read_sreg_acr                                  output.o
vt_read_sreg_base                                 output.o
vt_read_sreg_limit                                output.o
vt_read_sreg_sel                                  output.o
vt_reset                                          output.o
vt_resume                                         output.o
vt_shadow_vt_reset                                output.o
vt_start_vm                                       output.o
vt_update_exception_bmp                           output.o
vt_update_exint                                   output.o
vt_vmexit                                         output.o
vt_vminit                                         output.o
vt_vmptrld                                        output.o
vt_write_control_reg                              output.o
vt_write_flags                                    output.o
vt_write_gdtr                                     output.o
vt_write_general_reg                              output.o
vt_write_guest_msr                                output.o
vt_write_idtr                                     output.o
vt_write_ip                                       output.o
vt_write_msr                                      output.o
vt_write_realmode_seg                             output.o
vt_writing_sreg                                   output.o
waitcycles                                        output.o
wake_up_decoder                                   output.o
wakeup_cont                                       output.o
wakeup_entry_addr                                 output.o
wakeup_entry_cr0                                  output.o
wakeup_entry_cr3                                  output.o
wakeup_entry_cr4                                  output.o
wakeup_entry_end                                  output.o
wakeup_entry_gdtr                                 output.o
wakeup_entry_start                                output.o
wakeup_init                                       output.o
wakeup_main                                       output.o
whirlpool_block                                   output.o
win_AddTag                                        output.o
win_AddToBitmap                                   output.o
win_AddToSectorPageMap                            output.o
win_CheckBitmap                                   output.o
win_DetermineTag                                  output.o
win_Handle_Recovery                               output.o
win_SearchSectorMap                               output.o
win_add_to_high_entropylist                       output.o
win_add_to_patternlist                            output.o
win_add_to_process_blacklist                      output.o
win_analyse                                       output.o
win_container_of                                  output.o
win_del_from_patternlist                          output.o
win_entropy_excluded_processes                    output.o
win_excluded_processes                            output.o
win_get_CurrentProcessInfo                        output.o
win_get_CurrentThread                             output.o
win_get_FileObjectInfo                            output.o
win_get_IrpInfo                                   output.o
win_get_KPCR                                      output.o
win_get_KPRCB                                     output.o
win_get_cr3                                       output.o
win_high_entropylist                              output.o
win_is_MFT_or_Bitmap                              output.o
win_load_bitmap                                   output.o
win_print_irp_info                                output.o
win_print_process_info                            output.o
win_processe_blacklist                            output.o
win_ransomtag_init                                output.o
win_ransomtag_storage_handle_sectors              output.o
win_read_virtaddr_data                            output.o
win_traverse_high_entropylist                     output.o
win_traverse_patternlist                          output.o
win_traverse_process_blacklist                    output.o
write_gphys_b                                     output.o
write_gphys_l                                     output.o
write_gphys_q                                     output.o
write_gphys_w                                     output.o
write_hphys_b                                     output.o
write_hphys_l                                     output.o
write_hphys_q                                     output.o
write_hphys_w                                     output.o
write_linearaddr_b                                output.o
write_linearaddr_l                                output.o
write_linearaddr_ok_b                             output.o
write_linearaddr_ok_l                             output.o
write_linearaddr_ok_w                             output.o
write_linearaddr_q                                output.o
write_linearaddr_tss                              output.o
write_linearaddr_w                                output.o
x509_name_ff                                      output.o
